
code.elf:     file format elf32-avr


Disassembly of section .text:

00000000 <__vectors>:
       0:	0c 94 24 01 	jmp	0x248	; 0x248 <__ctors_end>
       4:	0c 94 41 01 	jmp	0x282	; 0x282 <__bad_interrupt>
       8:	0c 94 41 01 	jmp	0x282	; 0x282 <__bad_interrupt>
       c:	0c 94 41 01 	jmp	0x282	; 0x282 <__bad_interrupt>
      10:	0c 94 41 01 	jmp	0x282	; 0x282 <__bad_interrupt>
      14:	0c 94 ab 03 	jmp	0x756	; 0x756 <__vector_5>
      18:	0c 94 41 01 	jmp	0x282	; 0x282 <__bad_interrupt>
      1c:	0c 94 41 01 	jmp	0x282	; 0x282 <__bad_interrupt>
      20:	0c 94 41 01 	jmp	0x282	; 0x282 <__bad_interrupt>
      24:	0c 94 41 01 	jmp	0x282	; 0x282 <__bad_interrupt>
      28:	0c 94 41 01 	jmp	0x282	; 0x282 <__bad_interrupt>
      2c:	0c 94 75 03 	jmp	0x6ea	; 0x6ea <__vector_11>
      30:	0c 94 41 01 	jmp	0x282	; 0x282 <__bad_interrupt>
      34:	0c 94 41 01 	jmp	0x282	; 0x282 <__bad_interrupt>
      38:	0c 94 41 01 	jmp	0x282	; 0x282 <__bad_interrupt>
      3c:	0c 94 41 01 	jmp	0x282	; 0x282 <__bad_interrupt>
      40:	0c 94 41 01 	jmp	0x282	; 0x282 <__bad_interrupt>
      44:	0c 94 41 01 	jmp	0x282	; 0x282 <__bad_interrupt>
      48:	0c 94 a3 08 	jmp	0x1146	; 0x1146 <__vector_18>
      4c:	0c 94 41 01 	jmp	0x282	; 0x282 <__bad_interrupt>
      50:	0c 94 41 01 	jmp	0x282	; 0x282 <__bad_interrupt>
      54:	0c 94 41 01 	jmp	0x282	; 0x282 <__bad_interrupt>
      58:	0c 94 41 01 	jmp	0x282	; 0x282 <__bad_interrupt>
      5c:	0c 94 41 01 	jmp	0x282	; 0x282 <__bad_interrupt>
      60:	0c 94 41 01 	jmp	0x282	; 0x282 <__bad_interrupt>
      64:	0c 94 41 01 	jmp	0x282	; 0x282 <__bad_interrupt>

00000068 <CHARSET>:
      68:	00 00 00 00 00 00 00 5f 00 00 00 07 00 07 00 14     ......._........
      78:	7f 14 7f 14 24 2a 7f 2a 12 23 13 08 64 62 36 49     ....$*.*.#..db6I
      88:	55 22 50 00 05 03 00 00 00 1c 22 41 00 00 41 22     U"P......."A..A"
      98:	1c 00 14 08 3e 08 14 08 08 3e 08 08 00 50 30 00     ....>....>...P0.
      a8:	00 08 08 08 08 08 00 60 60 00 00 20 10 08 04 02     .......``.. ....
      b8:	3e 51 49 45 3e 00 42 7f 40 00 42 61 51 49 46 21     >QIE>.B.@.BaQIF!
      c8:	41 45 4b 31 18 14 12 7f 10 27 45 45 45 39 3c 4a     AEK1.....'EEE9<J
      d8:	49 49 30 01 71 09 05 03 36 49 49 49 36 06 49 49     II0.q...6III6.II
      e8:	29 1e 00 36 36 00 00 00 56 36 00 00 08 14 22 41     )..66...V6...."A
      f8:	00 14 14 14 14 14 00 41 22 14 08 02 01 51 09 06     .......A"....Q..
     108:	32 49 79 41 3e 7e 11 11 11 7e 7f 49 49 49 36 3e     2IyA>~...~.III6>
     118:	41 41 41 22 7f 41 41 22 1c 7f 49 49 49 41 7f 09     AAA".AA"..IIIA..
     128:	09 09 01 3e 41 49 49 7a 7f 08 08 08 7f 00 41 7f     ...>AIIz......A.
     138:	41 00 20 40 41 3f 01 7f 08 14 22 41 7f 40 40 40     A. @A?...."A.@@@
     148:	40 7f 02 0c 02 7f 7f 04 08 10 7f 3e 41 41 41 3e     @..........>AAA>
     158:	7f 09 09 09 06 3e 41 51 21 5e 7f 09 19 29 46 46     .....>AQ!^...)FF
     168:	49 49 49 31 01 01 7f 01 01 3f 40 40 40 3f 1f 20     III1.....?@@@?. 
     178:	40 20 1f 3f 40 38 40 3f 63 14 08 14 63 07 08 70     @ .?@8@?c...c..p
     188:	08 07 61 51 49 45 43 00 7f 41 41 00 02 04 08 10     ..aQIEC..AA.....
     198:	20 00 41 41 7f 00 04 02 01 02 04 40 40 40 40 40      .AA.......@@@@@
     1a8:	00 01 02 04 00 20 54 54 54 78 7f 48 44 44 38 38     ..... TTTx.HDD88
     1b8:	44 44 44 20 38 44 44 48 7f 38 54 54 54 18 08 7e     DDD 8DDH.8TTT..~
     1c8:	09 01 02 0c 52 52 52 3e 7f 08 04 04 78 00 44 7d     ....RRR>....x.D}
     1d8:	40 00 20 40 44 3d 00 7f 10 28 44 00 00 41 7f 40     @. @D=...(D..A.@
     1e8:	00 7c 04 18 04 78 7c 08 04 04 78 38 44 44 44 38     .|...x|...x8DDD8
     1f8:	7c 14 14 14 08 08 14 14 18 7c 7c 08 04 04 08 48     |........||....H
     208:	54 54 54 20 04 3f 44 40 20 3c 40 40 20 7c 1c 20     TTT .?D@ <@@ |. 
     218:	40 20 1c 3c 40 30 40 3c 44 28 10 28 44 0c 50 50     @ .<@0@<D(.(D.PP
     228:	50 3c 44 64 54 4c 44 00 08 36 41 00 00 00 7f 00     P<DdTLD..6A.....
     238:	00 00 41 36 08 00 10 08 08 10 08 00 00 00 00 00     ..A6............

00000248 <__ctors_end>:
     248:	11 24       	eor	r1, r1
     24a:	1f be       	out	0x3f, r1	; 63
     24c:	cf ef       	ldi	r28, 0xFF	; 255
     24e:	d8 e0       	ldi	r29, 0x08	; 8
     250:	de bf       	out	0x3e, r29	; 62
     252:	cd bf       	out	0x3d, r28	; 61

00000254 <__do_copy_data>:
     254:	11 e0       	ldi	r17, 0x01	; 1
     256:	a0 e0       	ldi	r26, 0x00	; 0
     258:	b1 e0       	ldi	r27, 0x01	; 1
     25a:	ea e8       	ldi	r30, 0x8A	; 138
     25c:	f9 e1       	ldi	r31, 0x19	; 25
     25e:	02 c0       	rjmp	.+4      	; 0x264 <__do_copy_data+0x10>
     260:	05 90       	lpm	r0, Z+
     262:	0d 92       	st	X+, r0
     264:	a6 32       	cpi	r26, 0x26	; 38
     266:	b1 07       	cpc	r27, r17
     268:	d9 f7       	brne	.-10     	; 0x260 <__do_copy_data+0xc>

0000026a <__do_clear_bss>:
     26a:	23 e0       	ldi	r18, 0x03	; 3
     26c:	a6 e2       	ldi	r26, 0x26	; 38
     26e:	b1 e0       	ldi	r27, 0x01	; 1
     270:	01 c0       	rjmp	.+2      	; 0x274 <.do_clear_bss_start>

00000272 <.do_clear_bss_loop>:
     272:	1d 92       	st	X+, r1

00000274 <.do_clear_bss_start>:
     274:	aa 3d       	cpi	r26, 0xDA	; 218
     276:	b2 07       	cpc	r27, r18
     278:	e1 f7       	brne	.-8      	; 0x272 <.do_clear_bss_loop>
     27a:	0e 94 21 09 	call	0x1242	; 0x1242 <main>
     27e:	0c 94 c3 0c 	jmp	0x1986	; 0x1986 <_exit>

00000282 <__bad_interrupt>:
     282:	0c 94 00 00 	jmp	0	; 0x0 <__vectors>

00000286 <sortSecret>:
     286:	0f 93       	push	r16
     288:	1f 93       	push	r17
     28a:	cf 93       	push	r28
     28c:	df 93       	push	r29
     28e:	80 91 28 01 	lds	r24, 0x0128	; 0x800128 <randomParam>
     292:	90 91 29 01 	lds	r25, 0x0129	; 0x800129 <randomParam+0x1>
     296:	0e 94 58 0c 	call	0x18b0	; 0x18b0 <srand>
     29a:	ca e8       	ldi	r28, 0x8A	; 138
     29c:	d3 e0       	ldi	r29, 0x03	; 3
     29e:	0a e0       	ldi	r16, 0x0A	; 10
     2a0:	10 e0       	ldi	r17, 0x00	; 0
     2a2:	0e 94 53 0c 	call	0x18a6	; 0x18a6 <rand>
     2a6:	b8 01       	movw	r22, r16
     2a8:	0e 94 6c 09 	call	0x12d8	; 0x12d8 <__divmodhi4>
     2ac:	89 93       	st	Y+, r24
     2ae:	99 93       	st	Y+, r25
     2b0:	83 e0       	ldi	r24, 0x03	; 3
     2b2:	c2 39       	cpi	r28, 0x92	; 146
     2b4:	d8 07       	cpc	r29, r24
     2b6:	a9 f7       	brne	.-22     	; 0x2a2 <sortSecret+0x1c>
     2b8:	df 91       	pop	r29
     2ba:	cf 91       	pop	r28
     2bc:	1f 91       	pop	r17
     2be:	0f 91       	pop	r16
     2c0:	08 95       	ret

000002c2 <nextDigit>:
     2c2:	80 91 26 01 	lds	r24, 0x0126	; 0x800126 <__data_end>
     2c6:	90 91 27 01 	lds	r25, 0x0127	; 0x800127 <__data_end+0x1>
     2ca:	01 96       	adiw	r24, 0x01	; 1
     2cc:	84 30       	cpi	r24, 0x04	; 4
     2ce:	91 05       	cpc	r25, r1
     2d0:	2c f4       	brge	.+10     	; 0x2dc <nextDigit+0x1a>
     2d2:	90 93 27 01 	sts	0x0127, r25	; 0x800127 <__data_end+0x1>
     2d6:	80 93 26 01 	sts	0x0126, r24	; 0x800126 <__data_end>
     2da:	08 95       	ret
     2dc:	10 92 27 01 	sts	0x0127, r1	; 0x800127 <__data_end+0x1>
     2e0:	10 92 26 01 	sts	0x0126, r1	; 0x800126 <__data_end>
     2e4:	08 95       	ret

000002e6 <nextValue>:
     2e6:	e0 91 26 01 	lds	r30, 0x0126	; 0x800126 <__data_end>
     2ea:	f0 91 27 01 	lds	r31, 0x0127	; 0x800127 <__data_end+0x1>
     2ee:	ee 0f       	add	r30, r30
     2f0:	ff 1f       	adc	r31, r31
     2f2:	ee 57       	subi	r30, 0x7E	; 126
     2f4:	fc 4f       	sbci	r31, 0xFC	; 252
     2f6:	80 81       	ld	r24, Z
     2f8:	91 81       	ldd	r25, Z+1	; 0x01
     2fa:	01 96       	adiw	r24, 0x01	; 1
     2fc:	8a 30       	cpi	r24, 0x0A	; 10
     2fe:	91 05       	cpc	r25, r1
     300:	1c f4       	brge	.+6      	; 0x308 <nextValue+0x22>
     302:	91 83       	std	Z+1, r25	; 0x01
     304:	80 83       	st	Z, r24
     306:	08 95       	ret
     308:	11 82       	std	Z+1, r1	; 0x01
     30a:	10 82       	st	Z, r1
     30c:	08 95       	ret

0000030e <prevValue>:
     30e:	e0 91 26 01 	lds	r30, 0x0126	; 0x800126 <__data_end>
     312:	f0 91 27 01 	lds	r31, 0x0127	; 0x800127 <__data_end+0x1>
     316:	ee 0f       	add	r30, r30
     318:	ff 1f       	adc	r31, r31
     31a:	ee 57       	subi	r30, 0x7E	; 126
     31c:	fc 4f       	sbci	r31, 0xFC	; 252
     31e:	80 81       	ld	r24, Z
     320:	91 81       	ldd	r25, Z+1	; 0x01
     322:	01 97       	sbiw	r24, 0x01	; 1
     324:	97 ff       	sbrs	r25, 7
     326:	02 c0       	rjmp	.+4      	; 0x32c <prevValue+0x1e>
     328:	89 e0       	ldi	r24, 0x09	; 9
     32a:	90 e0       	ldi	r25, 0x00	; 0
     32c:	91 83       	std	Z+1, r25	; 0x01
     32e:	80 83       	st	Z, r24
     330:	08 95       	ret

00000332 <clearLeds>:
     332:	a6 e7       	ldi	r26, 0x76	; 118
     334:	b3 e0       	ldi	r27, 0x03	; 3
     336:	11 96       	adiw	r26, 0x01	; 1
     338:	1c 92       	st	X, r1
     33a:	1e 92       	st	-X, r1
     33c:	e2 e9       	ldi	r30, 0x92	; 146
     33e:	f3 e0       	ldi	r31, 0x03	; 3
     340:	11 82       	std	Z+1, r1	; 0x01
     342:	10 82       	st	Z, r1
     344:	13 96       	adiw	r26, 0x03	; 3
     346:	1c 92       	st	X, r1
     348:	1e 92       	st	-X, r1
     34a:	12 97       	sbiw	r26, 0x02	; 2
     34c:	13 82       	std	Z+3, r1	; 0x03
     34e:	12 82       	std	Z+2, r1	; 0x02
     350:	15 96       	adiw	r26, 0x05	; 5
     352:	1c 92       	st	X, r1
     354:	1e 92       	st	-X, r1
     356:	14 97       	sbiw	r26, 0x04	; 4
     358:	15 82       	std	Z+5, r1	; 0x05
     35a:	14 82       	std	Z+4, r1	; 0x04
     35c:	17 96       	adiw	r26, 0x07	; 7
     35e:	1c 92       	st	X, r1
     360:	1e 92       	st	-X, r1
     362:	16 97       	sbiw	r26, 0x06	; 6
     364:	17 82       	std	Z+7, r1	; 0x07
     366:	16 82       	std	Z+6, r1	; 0x06
     368:	88 b1       	in	r24, 0x08	; 8
     36a:	80 7b       	andi	r24, 0xB0	; 176
     36c:	88 b9       	out	0x08, r24	; 8
     36e:	8b b1       	in	r24, 0x0b	; 11
     370:	88 7f       	andi	r24, 0xF8	; 248
     372:	8b b9       	out	0x0b, r24	; 11
     374:	08 95       	ret

00000376 <start>:
     376:	0e 94 43 01 	call	0x286	; 0x286 <sortSecret>
     37a:	8e e1       	ldi	r24, 0x1E	; 30
     37c:	90 e0       	ldi	r25, 0x00	; 0
     37e:	90 93 7f 03 	sts	0x037F, r25	; 0x80037f <time+0x1>
     382:	80 93 7e 03 	sts	0x037E, r24	; 0x80037e <time>
     386:	81 e0       	ldi	r24, 0x01	; 1
     388:	90 e0       	ldi	r25, 0x00	; 0
     38a:	90 93 2b 01 	sts	0x012B, r25	; 0x80012b <isTimeRunning+0x1>
     38e:	80 93 2a 01 	sts	0x012A, r24	; 0x80012a <isTimeRunning>
     392:	8a e0       	ldi	r24, 0x0A	; 10
     394:	90 e0       	ldi	r25, 0x00	; 0
     396:	90 93 81 03 	sts	0x0381, r25	; 0x800381 <lives+0x1>
     39a:	80 93 80 03 	sts	0x0380, r24	; 0x800380 <lives>
     39e:	e2 e8       	ldi	r30, 0x82	; 130
     3a0:	f3 e0       	ldi	r31, 0x03	; 3
     3a2:	11 82       	std	Z+1, r1	; 0x01
     3a4:	10 82       	st	Z, r1
     3a6:	13 82       	std	Z+3, r1	; 0x03
     3a8:	12 82       	std	Z+2, r1	; 0x02
     3aa:	15 82       	std	Z+5, r1	; 0x05
     3ac:	14 82       	std	Z+4, r1	; 0x04
     3ae:	17 82       	std	Z+7, r1	; 0x07
     3b0:	16 82       	std	Z+6, r1	; 0x06
     3b2:	0e 94 99 01 	call	0x332	; 0x332 <clearLeds>
     3b6:	10 92 27 01 	sts	0x0127, r1	; 0x800127 <__data_end+0x1>
     3ba:	10 92 26 01 	sts	0x0126, r1	; 0x800126 <__data_end>
     3be:	08 95       	ret

000003c0 <lose>:
     3c0:	10 92 2b 01 	sts	0x012B, r1	; 0x80012b <isTimeRunning+0x1>
     3c4:	10 92 2a 01 	sts	0x012A, r1	; 0x80012a <isTimeRunning>
     3c8:	0e 94 84 04 	call	0x908	; 0x908 <nokia_lcd_clear>
     3cc:	61 e0       	ldi	r22, 0x01	; 1
     3ce:	8c e0       	ldi	r24, 0x0C	; 12
     3d0:	91 e0       	ldi	r25, 0x01	; 1
     3d2:	0e 94 69 05 	call	0xad2	; 0xad2 <nokia_lcd_write_string>
     3d6:	0e 94 7e 05 	call	0xafc	; 0xafc <nokia_lcd_render>
     3da:	0e 94 99 01 	call	0x332	; 0x332 <clearLeds>
     3de:	2f ef       	ldi	r18, 0xFF	; 255
     3e0:	8b e7       	ldi	r24, 0x7B	; 123
     3e2:	92 e9       	ldi	r25, 0x92	; 146
     3e4:	21 50       	subi	r18, 0x01	; 1
     3e6:	80 40       	sbci	r24, 0x00	; 0
     3e8:	90 40       	sbci	r25, 0x00	; 0
     3ea:	e1 f7       	brne	.-8      	; 0x3e4 <lose+0x24>
     3ec:	00 c0       	rjmp	.+0      	; 0x3ee <lose+0x2e>
     3ee:	00 00       	nop
     3f0:	0c 94 bb 01 	jmp	0x376	; 0x376 <start>

000003f4 <blinkLeds>:
     3f4:	83 e0       	ldi	r24, 0x03	; 3
     3f6:	90 e0       	ldi	r25, 0x00	; 0
     3f8:	28 b1       	in	r18, 0x08	; 8
     3fa:	2f 64       	ori	r18, 0x4F	; 79
     3fc:	28 b9       	out	0x08, r18	; 8
     3fe:	2b b1       	in	r18, 0x0b	; 11
     400:	27 60       	ori	r18, 0x07	; 7
     402:	2b b9       	out	0x0b, r18	; 11
     404:	2f ef       	ldi	r18, 0xFF	; 255
     406:	39 e6       	ldi	r19, 0x69	; 105
     408:	48 e1       	ldi	r20, 0x18	; 24
     40a:	21 50       	subi	r18, 0x01	; 1
     40c:	30 40       	sbci	r19, 0x00	; 0
     40e:	40 40       	sbci	r20, 0x00	; 0
     410:	e1 f7       	brne	.-8      	; 0x40a <__LOCK_REGION_LENGTH__+0xa>
     412:	00 c0       	rjmp	.+0      	; 0x414 <__LOCK_REGION_LENGTH__+0x14>
     414:	00 00       	nop
     416:	28 b1       	in	r18, 0x08	; 8
     418:	20 7b       	andi	r18, 0xB0	; 176
     41a:	28 b9       	out	0x08, r18	; 8
     41c:	2b b1       	in	r18, 0x0b	; 11
     41e:	28 7f       	andi	r18, 0xF8	; 248
     420:	2b b9       	out	0x0b, r18	; 11
     422:	2f ef       	ldi	r18, 0xFF	; 255
     424:	39 e6       	ldi	r19, 0x69	; 105
     426:	48 e1       	ldi	r20, 0x18	; 24
     428:	21 50       	subi	r18, 0x01	; 1
     42a:	30 40       	sbci	r19, 0x00	; 0
     42c:	40 40       	sbci	r20, 0x00	; 0
     42e:	e1 f7       	brne	.-8      	; 0x428 <__LOCK_REGION_LENGTH__+0x28>
     430:	00 c0       	rjmp	.+0      	; 0x432 <__LOCK_REGION_LENGTH__+0x32>
     432:	00 00       	nop
     434:	01 97       	sbiw	r24, 0x01	; 1
     436:	01 f7       	brne	.-64     	; 0x3f8 <blinkLeds+0x4>
     438:	08 95       	ret

0000043a <win>:
     43a:	10 92 2b 01 	sts	0x012B, r1	; 0x80012b <isTimeRunning+0x1>
     43e:	10 92 2a 01 	sts	0x012A, r1	; 0x80012a <isTimeRunning>
     442:	0e 94 84 04 	call	0x908	; 0x908 <nokia_lcd_clear>
     446:	61 e0       	ldi	r22, 0x01	; 1
     448:	86 e1       	ldi	r24, 0x16	; 22
     44a:	91 e0       	ldi	r25, 0x01	; 1
     44c:	0e 94 69 05 	call	0xad2	; 0xad2 <nokia_lcd_write_string>
     450:	0e 94 7e 05 	call	0xafc	; 0xafc <nokia_lcd_render>
     454:	0e 94 99 01 	call	0x332	; 0x332 <clearLeds>
     458:	0e 94 fa 01 	call	0x3f4	; 0x3f4 <blinkLeds>
     45c:	0c 94 bb 01 	jmp	0x376	; 0x376 <start>

00000460 <verifyCode>:
     460:	cf 92       	push	r12
     462:	df 92       	push	r13
     464:	ef 92       	push	r14
     466:	ff 92       	push	r15
     468:	0f 93       	push	r16
     46a:	1f 93       	push	r17
     46c:	cf 93       	push	r28
     46e:	df 93       	push	r29
     470:	0e 94 99 01 	call	0x332	; 0x332 <clearLeds>
     474:	a2 e8       	ldi	r26, 0x82	; 130
     476:	b3 e0       	ldi	r27, 0x03	; 3
     478:	c6 e7       	ldi	r28, 0x76	; 118
     47a:	d3 e0       	ldi	r29, 0x03	; 3
     47c:	2a e8       	ldi	r18, 0x8A	; 138
     47e:	33 e0       	ldi	r19, 0x03	; 3
     480:	4a e8       	ldi	r20, 0x8A	; 138
     482:	53 e0       	ldi	r21, 0x03	; 3
     484:	6d 01       	movw	r12, r26
     486:	80 e0       	ldi	r24, 0x00	; 0
     488:	90 e0       	ldi	r25, 0x00	; 0
     48a:	61 e0       	ldi	r22, 0x01	; 1
     48c:	70 e0       	ldi	r23, 0x00	; 0
     48e:	f6 01       	movw	r30, r12
     490:	e1 90       	ld	r14, Z+
     492:	f1 90       	ld	r15, Z+
     494:	6f 01       	movw	r12, r30
     496:	fa 01       	movw	r30, r20
     498:	01 91       	ld	r16, Z+
     49a:	11 91       	ld	r17, Z+
     49c:	af 01       	movw	r20, r30
     49e:	e0 16       	cp	r14, r16
     4a0:	f1 06       	cpc	r15, r17
     4a2:	19 f4       	brne	.+6      	; 0x4aa <verifyCode+0x4a>
     4a4:	79 83       	std	Y+1, r23	; 0x01
     4a6:	68 83       	st	Y, r22
     4a8:	01 96       	adiw	r24, 0x01	; 1
     4aa:	22 96       	adiw	r28, 0x02	; 2
     4ac:	2c 15       	cp	r18, r12
     4ae:	3d 05       	cpc	r19, r13
     4b0:	71 f7       	brne	.-36     	; 0x48e <verifyCode+0x2e>
     4b2:	c2 e9       	ldi	r28, 0x92	; 146
     4b4:	d3 e0       	ldi	r29, 0x03	; 3
     4b6:	62 e9       	ldi	r22, 0x92	; 146
     4b8:	73 e0       	ldi	r23, 0x03	; 3
     4ba:	01 e0       	ldi	r16, 0x01	; 1
     4bc:	10 e0       	ldi	r17, 0x00	; 0
     4be:	4d 91       	ld	r20, X+
     4c0:	5d 91       	ld	r21, X+
     4c2:	ea e8       	ldi	r30, 0x8A	; 138
     4c4:	f3 e0       	ldi	r31, 0x03	; 3
     4c6:	e1 90       	ld	r14, Z+
     4c8:	f1 90       	ld	r15, Z+
     4ca:	4e 15       	cp	r20, r14
     4cc:	5f 05       	cpc	r21, r15
     4ce:	11 f4       	brne	.+4      	; 0x4d4 <verifyCode+0x74>
     4d0:	19 83       	std	Y+1, r17	; 0x01
     4d2:	08 83       	st	Y, r16
     4d4:	6e 17       	cp	r22, r30
     4d6:	7f 07       	cpc	r23, r31
     4d8:	b1 f7       	brne	.-20     	; 0x4c6 <verifyCode+0x66>
     4da:	22 96       	adiw	r28, 0x02	; 2
     4dc:	2a 17       	cp	r18, r26
     4de:	3b 07       	cpc	r19, r27
     4e0:	71 f7       	brne	.-36     	; 0x4be <verifyCode+0x5e>
     4e2:	04 97       	sbiw	r24, 0x04	; 4
     4e4:	19 f4       	brne	.+6      	; 0x4ec <verifyCode+0x8c>
     4e6:	0e 94 1d 02 	call	0x43a	; 0x43a <win>
     4ea:	13 c0       	rjmp	.+38     	; 0x512 <verifyCode+0xb2>
     4ec:	80 91 80 03 	lds	r24, 0x0380	; 0x800380 <lives>
     4f0:	90 91 81 03 	lds	r25, 0x0381	; 0x800381 <lives+0x1>
     4f4:	01 97       	sbiw	r24, 0x01	; 1
     4f6:	90 93 81 03 	sts	0x0381, r25	; 0x800381 <lives+0x1>
     4fa:	80 93 80 03 	sts	0x0380, r24	; 0x800380 <lives>
     4fe:	89 2b       	or	r24, r25
     500:	11 f4       	brne	.+4      	; 0x506 <verifyCode+0xa6>
     502:	0e 94 e0 01 	call	0x3c0	; 0x3c0 <lose>
     506:	8e e1       	ldi	r24, 0x1E	; 30
     508:	90 e0       	ldi	r25, 0x00	; 0
     50a:	90 93 7f 03 	sts	0x037F, r25	; 0x80037f <time+0x1>
     50e:	80 93 7e 03 	sts	0x037E, r24	; 0x80037e <time>
     512:	28 b1       	in	r18, 0x08	; 8
     514:	60 91 78 03 	lds	r22, 0x0378	; 0x800378 <greenLeds+0x2>
     518:	70 91 79 03 	lds	r23, 0x0379	; 0x800379 <greenLeds+0x3>
     51c:	66 0f       	add	r22, r22
     51e:	77 1f       	adc	r23, r23
     520:	80 91 76 03 	lds	r24, 0x0376	; 0x800376 <greenLeds>
     524:	28 2b       	or	r18, r24
     526:	26 2b       	or	r18, r22
     528:	40 91 7a 03 	lds	r20, 0x037A	; 0x80037a <greenLeds+0x4>
     52c:	50 91 7b 03 	lds	r21, 0x037B	; 0x80037b <greenLeds+0x5>
     530:	44 0f       	add	r20, r20
     532:	55 1f       	adc	r21, r21
     534:	44 0f       	add	r20, r20
     536:	55 1f       	adc	r21, r21
     538:	82 2f       	mov	r24, r18
     53a:	84 2b       	or	r24, r20
     53c:	20 91 7c 03 	lds	r18, 0x037C	; 0x80037c <greenLeds+0x6>
     540:	30 91 7d 03 	lds	r19, 0x037D	; 0x80037d <greenLeds+0x7>
     544:	43 e0       	ldi	r20, 0x03	; 3
     546:	22 0f       	add	r18, r18
     548:	33 1f       	adc	r19, r19
     54a:	4a 95       	dec	r20
     54c:	e1 f7       	brne	.-8      	; 0x546 <verifyCode+0xe6>
     54e:	28 2b       	or	r18, r24
     550:	80 91 92 03 	lds	r24, 0x0392	; 0x800392 <yellowLeds>
     554:	90 91 93 03 	lds	r25, 0x0393	; 0x800393 <yellowLeds+0x1>
     558:	56 e0       	ldi	r21, 0x06	; 6
     55a:	88 0f       	add	r24, r24
     55c:	99 1f       	adc	r25, r25
     55e:	5a 95       	dec	r21
     560:	e1 f7       	brne	.-8      	; 0x55a <verifyCode+0xfa>
     562:	82 2b       	or	r24, r18
     564:	88 b9       	out	0x08, r24	; 8
     566:	9b b1       	in	r25, 0x0b	; 11
     568:	20 91 96 03 	lds	r18, 0x0396	; 0x800396 <yellowLeds+0x4>
     56c:	30 91 97 03 	lds	r19, 0x0397	; 0x800397 <yellowLeds+0x5>
     570:	22 0f       	add	r18, r18
     572:	33 1f       	adc	r19, r19
     574:	80 91 94 03 	lds	r24, 0x0394	; 0x800394 <yellowLeds+0x2>
     578:	89 2b       	or	r24, r25
     57a:	28 2b       	or	r18, r24
     57c:	80 91 98 03 	lds	r24, 0x0398	; 0x800398 <yellowLeds+0x6>
     580:	90 91 99 03 	lds	r25, 0x0399	; 0x800399 <yellowLeds+0x7>
     584:	88 0f       	add	r24, r24
     586:	99 1f       	adc	r25, r25
     588:	88 0f       	add	r24, r24
     58a:	99 1f       	adc	r25, r25
     58c:	82 2b       	or	r24, r18
     58e:	8b b9       	out	0x0b, r24	; 11
     590:	df 91       	pop	r29
     592:	cf 91       	pop	r28
     594:	1f 91       	pop	r17
     596:	0f 91       	pop	r16
     598:	ff 90       	pop	r15
     59a:	ef 90       	pop	r14
     59c:	df 90       	pop	r13
     59e:	cf 90       	pop	r12
     5a0:	08 95       	ret

000005a2 <renderCode>:
     5a2:	1f 93       	push	r17
     5a4:	cf 93       	push	r28
     5a6:	df 93       	push	r29
     5a8:	cd b7       	in	r28, 0x3d	; 61
     5aa:	de b7       	in	r29, 0x3e	; 62
     5ac:	60 97       	sbiw	r28, 0x10	; 16
     5ae:	0f b6       	in	r0, 0x3f	; 63
     5b0:	f8 94       	cli
     5b2:	de bf       	out	0x3e, r29	; 62
     5b4:	0f be       	out	0x3f, r0	; 63
     5b6:	cd bf       	out	0x3d, r28	; 61
     5b8:	60 e0       	ldi	r22, 0x00	; 0
     5ba:	80 e0       	ldi	r24, 0x00	; 0
     5bc:	0e 94 79 05 	call	0xaf2	; 0xaf2 <nokia_lcd_set_cursor>
     5c0:	88 e0       	ldi	r24, 0x08	; 8
     5c2:	e4 e0       	ldi	r30, 0x04	; 4
     5c4:	f1 e0       	ldi	r31, 0x01	; 1
     5c6:	de 01       	movw	r26, r28
     5c8:	19 96       	adiw	r26, 0x09	; 9
     5ca:	01 90       	ld	r0, Z+
     5cc:	0d 92       	st	X+, r0
     5ce:	8a 95       	dec	r24
     5d0:	e1 f7       	brne	.-8      	; 0x5ca <renderCode+0x28>
     5d2:	a2 e8       	ldi	r26, 0x82	; 130
     5d4:	b3 e0       	ldi	r27, 0x03	; 3
     5d6:	fe 01       	movw	r30, r28
     5d8:	39 96       	adiw	r30, 0x09	; 9
     5da:	ae 01       	movw	r20, r28
     5dc:	4f 5e       	subi	r20, 0xEF	; 239
     5de:	5f 4f       	sbci	r21, 0xFF	; 255
     5e0:	cf 01       	movw	r24, r30
     5e2:	60 e2       	ldi	r22, 0x20	; 32
     5e4:	2d 91       	ld	r18, X+
     5e6:	3d 91       	ld	r19, X+
     5e8:	20 5d       	subi	r18, 0xD0	; 208
     5ea:	20 83       	st	Z, r18
     5ec:	10 e2       	ldi	r17, 0x20	; 32
     5ee:	61 83       	std	Z+1, r22	; 0x01
     5f0:	32 96       	adiw	r30, 0x02	; 2
     5f2:	e4 17       	cp	r30, r20
     5f4:	f5 07       	cpc	r31, r21
     5f6:	b1 f7       	brne	.-20     	; 0x5e4 <renderCode+0x42>
     5f8:	18 8a       	std	Y+16, r1	; 0x10
     5fa:	61 e0       	ldi	r22, 0x01	; 1
     5fc:	0e 94 69 05 	call	0xad2	; 0xad2 <nokia_lcd_write_string>
     600:	6a e0       	ldi	r22, 0x0A	; 10
     602:	80 e0       	ldi	r24, 0x00	; 0
     604:	0e 94 79 05 	call	0xaf2	; 0xaf2 <nokia_lcd_set_cursor>
     608:	88 e0       	ldi	r24, 0x08	; 8
     60a:	e4 e0       	ldi	r30, 0x04	; 4
     60c:	f1 e0       	ldi	r31, 0x01	; 1
     60e:	de 01       	movw	r26, r28
     610:	11 96       	adiw	r26, 0x01	; 1
     612:	01 90       	ld	r0, Z+
     614:	0d 92       	st	X+, r0
     616:	8a 95       	dec	r24
     618:	e1 f7       	brne	.-8      	; 0x612 <renderCode+0x70>
     61a:	19 83       	std	Y+1, r17	; 0x01
     61c:	1a 83       	std	Y+2, r17	; 0x02
     61e:	1b 83       	std	Y+3, r17	; 0x03
     620:	1c 83       	std	Y+4, r17	; 0x04
     622:	e0 91 26 01 	lds	r30, 0x0126	; 0x800126 <__data_end>
     626:	f0 91 27 01 	lds	r31, 0x0127	; 0x800127 <__data_end+0x1>
     62a:	ee 0f       	add	r30, r30
     62c:	ff 1f       	adc	r31, r31
     62e:	81 e0       	ldi	r24, 0x01	; 1
     630:	90 e0       	ldi	r25, 0x00	; 0
     632:	8c 0f       	add	r24, r28
     634:	9d 1f       	adc	r25, r29
     636:	e8 0f       	add	r30, r24
     638:	f9 1f       	adc	r31, r25
     63a:	8a e2       	ldi	r24, 0x2A	; 42
     63c:	80 83       	st	Z, r24
     63e:	18 86       	std	Y+8, r1	; 0x08
     640:	61 e0       	ldi	r22, 0x01	; 1
     642:	ce 01       	movw	r24, r28
     644:	01 96       	adiw	r24, 0x01	; 1
     646:	0e 94 69 05 	call	0xad2	; 0xad2 <nokia_lcd_write_string>
     64a:	60 96       	adiw	r28, 0x10	; 16
     64c:	0f b6       	in	r0, 0x3f	; 63
     64e:	f8 94       	cli
     650:	de bf       	out	0x3e, r29	; 62
     652:	0f be       	out	0x3f, r0	; 63
     654:	cd bf       	out	0x3d, r28	; 61
     656:	df 91       	pop	r29
     658:	cf 91       	pop	r28
     65a:	1f 91       	pop	r17
     65c:	08 95       	ret

0000065e <renderTime>:
     65e:	64 e1       	ldi	r22, 0x14	; 20
     660:	80 e0       	ldi	r24, 0x00	; 0
     662:	0e 94 79 05 	call	0xaf2	; 0xaf2 <nokia_lcd_set_cursor>
     666:	80 91 7e 03 	lds	r24, 0x037E	; 0x80037e <time>
     66a:	90 91 7f 03 	lds	r25, 0x037F	; 0x80037f <time+0x1>
     66e:	8a 30       	cpi	r24, 0x0A	; 10
     670:	91 05       	cpc	r25, r1
     672:	3c f4       	brge	.+14     	; 0x682 <renderTime+0x24>
     674:	90 e3       	ldi	r25, 0x30	; 48
     676:	90 93 70 03 	sts	0x0370, r25	; 0x800370 <stringTime>
     67a:	80 5d       	subi	r24, 0xD0	; 208
     67c:	80 93 71 03 	sts	0x0371, r24	; 0x800371 <stringTime+0x1>
     680:	05 c0       	rjmp	.+10     	; 0x68c <renderTime+0x2e>
     682:	4a e0       	ldi	r20, 0x0A	; 10
     684:	60 e7       	ldi	r22, 0x70	; 112
     686:	73 e0       	ldi	r23, 0x03	; 3
     688:	0e 94 6c 0c 	call	0x18d8	; 0x18d8 <__itoa_ncheck>
     68c:	10 92 72 03 	sts	0x0372, r1	; 0x800372 <stringTime+0x2>
     690:	61 e0       	ldi	r22, 0x01	; 1
     692:	80 e7       	ldi	r24, 0x70	; 112
     694:	93 e0       	ldi	r25, 0x03	; 3
     696:	0c 94 69 05 	jmp	0xad2	; 0xad2 <nokia_lcd_write_string>

0000069a <renderLives>:
     69a:	6e e1       	ldi	r22, 0x1E	; 30
     69c:	80 e0       	ldi	r24, 0x00	; 0
     69e:	0e 94 79 05 	call	0xaf2	; 0xaf2 <nokia_lcd_set_cursor>
     6a2:	80 91 80 03 	lds	r24, 0x0380	; 0x800380 <lives>
     6a6:	90 91 81 03 	lds	r25, 0x0381	; 0x800381 <lives+0x1>
     6aa:	8a 30       	cpi	r24, 0x0A	; 10
     6ac:	91 05       	cpc	r25, r1
     6ae:	3c f4       	brge	.+14     	; 0x6be <renderLives+0x24>
     6b0:	90 e3       	ldi	r25, 0x30	; 48
     6b2:	90 93 73 03 	sts	0x0373, r25	; 0x800373 <stringLives>
     6b6:	80 5d       	subi	r24, 0xD0	; 208
     6b8:	80 93 74 03 	sts	0x0374, r24	; 0x800374 <stringLives+0x1>
     6bc:	05 c0       	rjmp	.+10     	; 0x6c8 <renderLives+0x2e>
     6be:	4a e0       	ldi	r20, 0x0A	; 10
     6c0:	63 e7       	ldi	r22, 0x73	; 115
     6c2:	73 e0       	ldi	r23, 0x03	; 3
     6c4:	0e 94 6c 0c 	call	0x18d8	; 0x18d8 <__itoa_ncheck>
     6c8:	10 92 75 03 	sts	0x0375, r1	; 0x800375 <stringLives+0x2>
     6cc:	61 e0       	ldi	r22, 0x01	; 1
     6ce:	83 e7       	ldi	r24, 0x73	; 115
     6d0:	93 e0       	ldi	r25, 0x03	; 3
     6d2:	0c 94 69 05 	jmp	0xad2	; 0xad2 <nokia_lcd_write_string>

000006d6 <render>:
     6d6:	0e 94 84 04 	call	0x908	; 0x908 <nokia_lcd_clear>
     6da:	0e 94 d1 02 	call	0x5a2	; 0x5a2 <renderCode>
     6de:	0e 94 2f 03 	call	0x65e	; 0x65e <renderTime>
     6e2:	0e 94 4d 03 	call	0x69a	; 0x69a <renderLives>
     6e6:	0c 94 7e 05 	jmp	0xafc	; 0xafc <nokia_lcd_render>

000006ea <__vector_11>:
     6ea:	1f 92       	push	r1
     6ec:	0f 92       	push	r0
     6ee:	0f b6       	in	r0, 0x3f	; 63
     6f0:	0f 92       	push	r0
     6f2:	11 24       	eor	r1, r1
     6f4:	2f 93       	push	r18
     6f6:	3f 93       	push	r19
     6f8:	4f 93       	push	r20
     6fa:	5f 93       	push	r21
     6fc:	6f 93       	push	r22
     6fe:	7f 93       	push	r23
     700:	8f 93       	push	r24
     702:	9f 93       	push	r25
     704:	af 93       	push	r26
     706:	bf 93       	push	r27
     708:	ef 93       	push	r30
     70a:	ff 93       	push	r31
     70c:	80 91 2a 01 	lds	r24, 0x012A	; 0x80012a <isTimeRunning>
     710:	90 91 2b 01 	lds	r25, 0x012B	; 0x80012b <isTimeRunning+0x1>
     714:	89 2b       	or	r24, r25
     716:	71 f0       	breq	.+28     	; 0x734 <__vector_11+0x4a>
     718:	0e 94 6b 03 	call	0x6d6	; 0x6d6 <render>
     71c:	80 91 7e 03 	lds	r24, 0x037E	; 0x80037e <time>
     720:	90 91 7f 03 	lds	r25, 0x037F	; 0x80037f <time+0x1>
     724:	01 97       	sbiw	r24, 0x01	; 1
     726:	90 93 7f 03 	sts	0x037F, r25	; 0x80037f <time+0x1>
     72a:	80 93 7e 03 	sts	0x037E, r24	; 0x80037e <time>
     72e:	97 fd       	sbrc	r25, 7
     730:	0e 94 e0 01 	call	0x3c0	; 0x3c0 <lose>
     734:	ff 91       	pop	r31
     736:	ef 91       	pop	r30
     738:	bf 91       	pop	r27
     73a:	af 91       	pop	r26
     73c:	9f 91       	pop	r25
     73e:	8f 91       	pop	r24
     740:	7f 91       	pop	r23
     742:	6f 91       	pop	r22
     744:	5f 91       	pop	r21
     746:	4f 91       	pop	r20
     748:	3f 91       	pop	r19
     74a:	2f 91       	pop	r18
     74c:	0f 90       	pop	r0
     74e:	0f be       	out	0x3f, r0	; 63
     750:	0f 90       	pop	r0
     752:	1f 90       	pop	r1
     754:	18 95       	reti

00000756 <__vector_5>:
     756:	1f 92       	push	r1
     758:	0f 92       	push	r0
     75a:	0f b6       	in	r0, 0x3f	; 63
     75c:	0f 92       	push	r0
     75e:	11 24       	eor	r1, r1
     760:	2f 93       	push	r18
     762:	3f 93       	push	r19
     764:	4f 93       	push	r20
     766:	5f 93       	push	r21
     768:	6f 93       	push	r22
     76a:	7f 93       	push	r23
     76c:	8f 93       	push	r24
     76e:	9f 93       	push	r25
     770:	af 93       	push	r26
     772:	bf 93       	push	r27
     774:	ef 93       	push	r30
     776:	ff 93       	push	r31
     778:	4b 9b       	sbis	0x09, 3	; 9
     77a:	03 c0       	rjmp	.+6      	; 0x782 <__vector_5+0x2c>
     77c:	4c 99       	sbic	0x09, 4	; 9
     77e:	0e c0       	rjmp	.+28     	; 0x79c <__vector_5+0x46>
     780:	10 c0       	rjmp	.+32     	; 0x7a2 <__vector_5+0x4c>
     782:	0e 94 73 01 	call	0x2e6	; 0x2e6 <nextValue>
     786:	0e 94 6b 03 	call	0x6d6	; 0x6d6 <render>
     78a:	4b 99       	sbic	0x09, 3	; 9
     78c:	f7 cf       	rjmp	.-18     	; 0x77c <__vector_5+0x26>
     78e:	8f e9       	ldi	r24, 0x9F	; 159
     790:	9f e0       	ldi	r25, 0x0F	; 15
     792:	01 97       	sbiw	r24, 0x01	; 1
     794:	f1 f7       	brne	.-4      	; 0x792 <__vector_5+0x3c>
     796:	00 c0       	rjmp	.+0      	; 0x798 <__vector_5+0x42>
     798:	00 00       	nop
     79a:	f7 cf       	rjmp	.-18     	; 0x78a <__vector_5+0x34>
     79c:	4d 99       	sbic	0x09, 5	; 9
     79e:	0e c0       	rjmp	.+28     	; 0x7bc <__vector_5+0x66>
     7a0:	10 c0       	rjmp	.+32     	; 0x7c2 <__vector_5+0x6c>
     7a2:	0e 94 87 01 	call	0x30e	; 0x30e <prevValue>
     7a6:	0e 94 6b 03 	call	0x6d6	; 0x6d6 <render>
     7aa:	4c 99       	sbic	0x09, 4	; 9
     7ac:	f7 cf       	rjmp	.-18     	; 0x79c <__vector_5+0x46>
     7ae:	8f e9       	ldi	r24, 0x9F	; 159
     7b0:	9f e0       	ldi	r25, 0x0F	; 15
     7b2:	01 97       	sbiw	r24, 0x01	; 1
     7b4:	f1 f7       	brne	.-4      	; 0x7b2 <__vector_5+0x5c>
     7b6:	00 c0       	rjmp	.+0      	; 0x7b8 <__vector_5+0x62>
     7b8:	00 00       	nop
     7ba:	f7 cf       	rjmp	.-18     	; 0x7aa <__vector_5+0x54>
     7bc:	4e 99       	sbic	0x09, 6	; 9
     7be:	0e c0       	rjmp	.+28     	; 0x7dc <__vector_5+0x86>
     7c0:	10 c0       	rjmp	.+32     	; 0x7e2 <__vector_5+0x8c>
     7c2:	0e 94 61 01 	call	0x2c2	; 0x2c2 <nextDigit>
     7c6:	0e 94 6b 03 	call	0x6d6	; 0x6d6 <render>
     7ca:	4d 99       	sbic	0x09, 5	; 9
     7cc:	f7 cf       	rjmp	.-18     	; 0x7bc <__vector_5+0x66>
     7ce:	8f e9       	ldi	r24, 0x9F	; 159
     7d0:	9f e0       	ldi	r25, 0x0F	; 15
     7d2:	01 97       	sbiw	r24, 0x01	; 1
     7d4:	f1 f7       	brne	.-4      	; 0x7d2 <__vector_5+0x7c>
     7d6:	00 c0       	rjmp	.+0      	; 0x7d8 <__vector_5+0x82>
     7d8:	00 00       	nop
     7da:	f7 cf       	rjmp	.-18     	; 0x7ca <__vector_5+0x74>
     7dc:	4f 9b       	sbis	0x09, 7	; 9
     7de:	27 c0       	rjmp	.+78     	; 0x82e <__vector_5+0xd8>
     7e0:	0f c0       	rjmp	.+30     	; 0x800 <__vector_5+0xaa>
     7e2:	0e 94 30 02 	call	0x460	; 0x460 <verifyCode>
     7e6:	0e 94 4d 03 	call	0x69a	; 0x69a <renderLives>
     7ea:	0e 94 7e 05 	call	0xafc	; 0xafc <nokia_lcd_render>
     7ee:	4e 99       	sbic	0x09, 6	; 9
     7f0:	f5 cf       	rjmp	.-22     	; 0x7dc <__vector_5+0x86>
     7f2:	8f e9       	ldi	r24, 0x9F	; 159
     7f4:	9f e0       	ldi	r25, 0x0F	; 15
     7f6:	01 97       	sbiw	r24, 0x01	; 1
     7f8:	f1 f7       	brne	.-4      	; 0x7f6 <__vector_5+0xa0>
     7fa:	00 c0       	rjmp	.+0      	; 0x7fc <__vector_5+0xa6>
     7fc:	00 00       	nop
     7fe:	f7 cf       	rjmp	.-18     	; 0x7ee <__vector_5+0x98>
     800:	8f e9       	ldi	r24, 0x9F	; 159
     802:	9f e0       	ldi	r25, 0x0F	; 15
     804:	01 97       	sbiw	r24, 0x01	; 1
     806:	f1 f7       	brne	.-4      	; 0x804 <__vector_5+0xae>
     808:	00 c0       	rjmp	.+0      	; 0x80a <__vector_5+0xb4>
     80a:	00 00       	nop
     80c:	ff 91       	pop	r31
     80e:	ef 91       	pop	r30
     810:	bf 91       	pop	r27
     812:	af 91       	pop	r26
     814:	9f 91       	pop	r25
     816:	8f 91       	pop	r24
     818:	7f 91       	pop	r23
     81a:	6f 91       	pop	r22
     81c:	5f 91       	pop	r21
     81e:	4f 91       	pop	r20
     820:	3f 91       	pop	r19
     822:	2f 91       	pop	r18
     824:	0f 90       	pop	r0
     826:	0f be       	out	0x3f, r0	; 63
     828:	0f 90       	pop	r0
     82a:	1f 90       	pop	r1
     82c:	18 95       	reti
     82e:	0e 94 bb 01 	call	0x376	; 0x376 <start>
     832:	4f 99       	sbic	0x09, 7	; 9
     834:	e5 cf       	rjmp	.-54     	; 0x800 <__vector_5+0xaa>
     836:	8f e9       	ldi	r24, 0x9F	; 159
     838:	9f e0       	ldi	r25, 0x0F	; 15
     83a:	01 97       	sbiw	r24, 0x01	; 1
     83c:	f1 f7       	brne	.-4      	; 0x83a <__vector_5+0xe4>
     83e:	00 c0       	rjmp	.+0      	; 0x840 <__vector_5+0xea>
     840:	00 00       	nop
     842:	f7 cf       	rjmp	.-18     	; 0x832 <__vector_5+0xdc>

00000844 <write>:
     844:	29 98       	cbi	0x05, 1	; 5
     846:	66 23       	and	r22, r22
     848:	11 f0       	breq	.+4      	; 0x84e <write+0xa>
     84a:	2b 9a       	sbi	0x05, 3	; 5
     84c:	01 c0       	rjmp	.+2      	; 0x850 <write+0xc>
     84e:	2b 98       	cbi	0x05, 3	; 5
     850:	27 e0       	ldi	r18, 0x07	; 7
     852:	30 e0       	ldi	r19, 0x00	; 0
     854:	90 e0       	ldi	r25, 0x00	; 0
     856:	ac 01       	movw	r20, r24
     858:	02 2e       	mov	r0, r18
     85a:	02 c0       	rjmp	.+4      	; 0x860 <write+0x1c>
     85c:	55 95       	asr	r21
     85e:	47 95       	ror	r20
     860:	0a 94       	dec	r0
     862:	e2 f7       	brpl	.-8      	; 0x85c <write+0x18>
     864:	40 ff       	sbrs	r20, 0
     866:	02 c0       	rjmp	.+4      	; 0x86c <write+0x28>
     868:	2c 9a       	sbi	0x05, 4	; 5
     86a:	01 c0       	rjmp	.+2      	; 0x86e <write+0x2a>
     86c:	2c 98       	cbi	0x05, 4	; 5
     86e:	2d 9a       	sbi	0x05, 5	; 5
     870:	2d 98       	cbi	0x05, 5	; 5
     872:	21 50       	subi	r18, 0x01	; 1
     874:	31 09       	sbc	r19, r1
     876:	78 f7       	brcc	.-34     	; 0x856 <write+0x12>
     878:	29 9a       	sbi	0x05, 1	; 5
     87a:	08 95       	ret

0000087c <write_cmd>:
     87c:	60 e0       	ldi	r22, 0x00	; 0
     87e:	0c 94 22 04 	jmp	0x844	; 0x844 <write>

00000882 <nokia_lcd_init>:
     882:	cf 93       	push	r28
     884:	df 93       	push	r29
     886:	21 9a       	sbi	0x04, 1	; 4
     888:	22 9a       	sbi	0x04, 2	; 4
     88a:	23 9a       	sbi	0x04, 3	; 4
     88c:	24 9a       	sbi	0x04, 4	; 4
     88e:	25 9a       	sbi	0x04, 5	; 4
     890:	2a 9a       	sbi	0x05, 2	; 5
     892:	29 9a       	sbi	0x05, 1	; 5
     894:	8f e3       	ldi	r24, 0x3F	; 63
     896:	9c e9       	ldi	r25, 0x9C	; 156
     898:	01 97       	sbiw	r24, 0x01	; 1
     89a:	f1 f7       	brne	.-4      	; 0x898 <nokia_lcd_init+0x16>
     89c:	00 c0       	rjmp	.+0      	; 0x89e <nokia_lcd_init+0x1c>
     89e:	00 00       	nop
     8a0:	2a 98       	cbi	0x05, 2	; 5
     8a2:	9f ef       	ldi	r25, 0xFF	; 255
     8a4:	2a e6       	ldi	r18, 0x6A	; 106
     8a6:	83 e0       	ldi	r24, 0x03	; 3
     8a8:	91 50       	subi	r25, 0x01	; 1
     8aa:	20 40       	sbci	r18, 0x00	; 0
     8ac:	80 40       	sbci	r24, 0x00	; 0
     8ae:	e1 f7       	brne	.-8      	; 0x8a8 <nokia_lcd_init+0x26>
     8b0:	00 c0       	rjmp	.+0      	; 0x8b2 <nokia_lcd_init+0x30>
     8b2:	00 00       	nop
     8b4:	2a 9a       	sbi	0x05, 2	; 5
     8b6:	29 98       	cbi	0x05, 1	; 5
     8b8:	81 e2       	ldi	r24, 0x21	; 33
     8ba:	0e 94 3e 04 	call	0x87c	; 0x87c <write_cmd>
     8be:	83 e1       	ldi	r24, 0x13	; 19
     8c0:	0e 94 3e 04 	call	0x87c	; 0x87c <write_cmd>
     8c4:	86 e0       	ldi	r24, 0x06	; 6
     8c6:	0e 94 3e 04 	call	0x87c	; 0x87c <write_cmd>
     8ca:	82 ec       	ldi	r24, 0xC2	; 194
     8cc:	0e 94 3e 04 	call	0x87c	; 0x87c <write_cmd>
     8d0:	80 e2       	ldi	r24, 0x20	; 32
     8d2:	0e 94 3e 04 	call	0x87c	; 0x87c <write_cmd>
     8d6:	89 e0       	ldi	r24, 0x09	; 9
     8d8:	0e 94 3e 04 	call	0x87c	; 0x87c <write_cmd>
     8dc:	80 e8       	ldi	r24, 0x80	; 128
     8de:	0e 94 3e 04 	call	0x87c	; 0x87c <write_cmd>
     8e2:	80 e4       	ldi	r24, 0x40	; 64
     8e4:	0e 94 3e 04 	call	0x87c	; 0x87c <write_cmd>
     8e8:	c8 ef       	ldi	r28, 0xF8	; 248
     8ea:	d1 e0       	ldi	r29, 0x01	; 1
     8ec:	61 e0       	ldi	r22, 0x01	; 1
     8ee:	80 e0       	ldi	r24, 0x00	; 0
     8f0:	0e 94 22 04 	call	0x844	; 0x844 <write>
     8f4:	21 97       	sbiw	r28, 0x01	; 1
     8f6:	d1 f7       	brne	.-12     	; 0x8ec <nokia_lcd_init+0x6a>
     8f8:	88 e0       	ldi	r24, 0x08	; 8
     8fa:	0e 94 3e 04 	call	0x87c	; 0x87c <write_cmd>
     8fe:	8c e0       	ldi	r24, 0x0C	; 12
     900:	df 91       	pop	r29
     902:	cf 91       	pop	r28
     904:	0c 94 3e 04 	jmp	0x87c	; 0x87c <write_cmd>

00000908 <nokia_lcd_clear>:
     908:	80 e8       	ldi	r24, 0x80	; 128
     90a:	0e 94 3e 04 	call	0x87c	; 0x87c <write_cmd>
     90e:	80 e4       	ldi	r24, 0x40	; 64
     910:	0e 94 3e 04 	call	0x87c	; 0x87c <write_cmd>
     914:	10 92 24 03 	sts	0x0324, r1	; 0x800324 <nokia_lcd+0x1f8>
     918:	10 92 25 03 	sts	0x0325, r1	; 0x800325 <nokia_lcd+0x1f9>
     91c:	88 ef       	ldi	r24, 0xF8	; 248
     91e:	91 e0       	ldi	r25, 0x01	; 1
     920:	ec e2       	ldi	r30, 0x2C	; 44
     922:	f1 e0       	ldi	r31, 0x01	; 1
     924:	df 01       	movw	r26, r30
     926:	9c 01       	movw	r18, r24
     928:	1d 92       	st	X+, r1
     92a:	21 50       	subi	r18, 0x01	; 1
     92c:	30 40       	sbci	r19, 0x00	; 0
     92e:	e1 f7       	brne	.-8      	; 0x928 <nokia_lcd_clear+0x20>
     930:	08 95       	ret

00000932 <nokia_lcd_power>:
     932:	81 11       	cpse	r24, r1
     934:	02 c0       	rjmp	.+4      	; 0x93a <nokia_lcd_power+0x8>
     936:	84 e2       	ldi	r24, 0x24	; 36
     938:	01 c0       	rjmp	.+2      	; 0x93c <nokia_lcd_power+0xa>
     93a:	80 e2       	ldi	r24, 0x20	; 32
     93c:	0c 94 3e 04 	jmp	0x87c	; 0x87c <write_cmd>

00000940 <nokia_lcd_set_pixel>:
     940:	96 2f       	mov	r25, r22
     942:	96 95       	lsr	r25
     944:	96 95       	lsr	r25
     946:	96 95       	lsr	r25
     948:	e8 2f       	mov	r30, r24
     94a:	f0 e0       	ldi	r31, 0x00	; 0
     94c:	84 e5       	ldi	r24, 0x54	; 84
     94e:	98 9f       	mul	r25, r24
     950:	e0 0d       	add	r30, r0
     952:	f1 1d       	adc	r31, r1
     954:	11 24       	eor	r1, r1
     956:	e4 5d       	subi	r30, 0xD4	; 212
     958:	fe 4f       	sbci	r31, 0xFE	; 254
     95a:	67 70       	andi	r22, 0x07	; 7
     95c:	81 e0       	ldi	r24, 0x01	; 1
     95e:	90 e0       	ldi	r25, 0x00	; 0
     960:	01 c0       	rjmp	.+2      	; 0x964 <nokia_lcd_set_pixel+0x24>
     962:	88 0f       	add	r24, r24
     964:	6a 95       	dec	r22
     966:	ea f7       	brpl	.-6      	; 0x962 <nokia_lcd_set_pixel+0x22>
     968:	44 23       	and	r20, r20
     96a:	19 f0       	breq	.+6      	; 0x972 <nokia_lcd_set_pixel+0x32>
     96c:	90 81       	ld	r25, Z
     96e:	89 2b       	or	r24, r25
     970:	03 c0       	rjmp	.+6      	; 0x978 <nokia_lcd_set_pixel+0x38>
     972:	80 95       	com	r24
     974:	90 81       	ld	r25, Z
     976:	89 23       	and	r24, r25
     978:	80 83       	st	Z, r24
     97a:	08 95       	ret

0000097c <nokia_lcd_write_char>:
     97c:	8f 92       	push	r8
     97e:	9f 92       	push	r9
     980:	af 92       	push	r10
     982:	bf 92       	push	r11
     984:	df 92       	push	r13
     986:	ef 92       	push	r14
     988:	ff 92       	push	r15
     98a:	0f 93       	push	r16
     98c:	1f 93       	push	r17
     98e:	cf 93       	push	r28
     990:	df 93       	push	r29
     992:	00 d0       	rcall	.+0      	; 0x994 <nokia_lcd_write_char+0x18>
     994:	00 d0       	rcall	.+0      	; 0x996 <nokia_lcd_write_char+0x1a>
     996:	1f 92       	push	r1
     998:	cd b7       	in	r28, 0x3d	; 61
     99a:	de b7       	in	r29, 0x3e	; 62
     99c:	f6 2e       	mov	r15, r22
     99e:	28 2f       	mov	r18, r24
     9a0:	08 2e       	mov	r0, r24
     9a2:	00 0c       	add	r0, r0
     9a4:	33 0b       	sbc	r19, r19
     9a6:	80 32       	cpi	r24, 0x20	; 32
     9a8:	6c f0       	brlt	.+26     	; 0x9c4 <nokia_lcd_write_char+0x48>
     9aa:	20 52       	subi	r18, 0x20	; 32
     9ac:	31 09       	sbc	r19, r1
     9ae:	85 e0       	ldi	r24, 0x05	; 5
     9b0:	82 9f       	mul	r24, r18
     9b2:	b0 01       	movw	r22, r0
     9b4:	83 9f       	mul	r24, r19
     9b6:	70 0d       	add	r23, r0
     9b8:	11 24       	eor	r1, r1
     9ba:	68 59       	subi	r22, 0x98	; 152
     9bc:	7f 4f       	sbci	r23, 0xFF	; 255
     9be:	45 e0       	ldi	r20, 0x05	; 5
     9c0:	50 e0       	ldi	r21, 0x00	; 0
     9c2:	0e c0       	rjmp	.+28     	; 0x9e0 <nokia_lcd_write_char+0x64>
     9c4:	22 0f       	add	r18, r18
     9c6:	33 1f       	adc	r19, r19
     9c8:	f9 01       	movw	r30, r18
     9ca:	e6 56       	subi	r30, 0x66	; 102
     9cc:	fc 4f       	sbci	r31, 0xFC	; 252
     9ce:	00 81       	ld	r16, Z
     9d0:	11 81       	ldd	r17, Z+1	; 0x01
     9d2:	01 15       	cp	r16, r1
     9d4:	11 05       	cpc	r17, r1
     9d6:	59 f4       	brne	.+22     	; 0x9ee <nokia_lcd_write_char+0x72>
     9d8:	45 e0       	ldi	r20, 0x05	; 5
     9da:	50 e0       	ldi	r21, 0x00	; 0
     9dc:	68 e6       	ldi	r22, 0x68	; 104
     9de:	70 e0       	ldi	r23, 0x00	; 0
     9e0:	ce 01       	movw	r24, r28
     9e2:	01 96       	adiw	r24, 0x01	; 1
     9e4:	0e 94 63 0c 	call	0x18c6	; 0x18c6 <memcpy_P>
     9e8:	8e 01       	movw	r16, r28
     9ea:	0f 5f       	subi	r16, 0xFF	; 255
     9ec:	1f 4f       	sbci	r17, 0xFF	; 255
     9ee:	85 e0       	ldi	r24, 0x05	; 5
     9f0:	f8 9e       	mul	r15, r24
     9f2:	50 01       	movw	r10, r0
     9f4:	11 24       	eor	r1, r1
     9f6:	97 e0       	ldi	r25, 0x07	; 7
     9f8:	f9 9e       	mul	r15, r25
     9fa:	40 01       	movw	r8, r0
     9fc:	11 24       	eor	r1, r1
     9fe:	d1 2c       	mov	r13, r1
     a00:	8d 2d       	mov	r24, r13
     a02:	90 e0       	ldi	r25, 0x00	; 0
     a04:	8a 15       	cp	r24, r10
     a06:	9b 05       	cpc	r25, r11
     a08:	44 f5       	brge	.+80     	; 0xa5a <nokia_lcd_write_char+0xde>
     a0a:	e1 2c       	mov	r14, r1
     a0c:	8e 2d       	mov	r24, r14
     a0e:	90 e0       	ldi	r25, 0x00	; 0
     a10:	88 15       	cp	r24, r8
     a12:	99 05       	cpc	r25, r9
     a14:	04 f5       	brge	.+64     	; 0xa56 <nokia_lcd_write_char+0xda>
     a16:	8d 2d       	mov	r24, r13
     a18:	6f 2d       	mov	r22, r15
     a1a:	0e 94 60 09 	call	0x12c0	; 0x12c0 <__udivmodqi4>
     a1e:	f8 01       	movw	r30, r16
     a20:	e8 0f       	add	r30, r24
     a22:	f1 1d       	adc	r31, r1
     a24:	20 81       	ld	r18, Z
     a26:	30 e0       	ldi	r19, 0x00	; 0
     a28:	8e 2d       	mov	r24, r14
     a2a:	0e 94 60 09 	call	0x12c0	; 0x12c0 <__udivmodqi4>
     a2e:	02 c0       	rjmp	.+4      	; 0xa34 <nokia_lcd_write_char+0xb8>
     a30:	35 95       	asr	r19
     a32:	27 95       	ror	r18
     a34:	8a 95       	dec	r24
     a36:	e2 f7       	brpl	.-8      	; 0xa30 <nokia_lcd_write_char+0xb4>
     a38:	60 91 25 03 	lds	r22, 0x0325	; 0x800325 <nokia_lcd+0x1f9>
     a3c:	80 91 24 03 	lds	r24, 0x0324	; 0x800324 <nokia_lcd+0x1f8>
     a40:	6e 0d       	add	r22, r14
     a42:	20 ff       	sbrs	r18, 0
     a44:	02 c0       	rjmp	.+4      	; 0xa4a <nokia_lcd_write_char+0xce>
     a46:	41 e0       	ldi	r20, 0x01	; 1
     a48:	01 c0       	rjmp	.+2      	; 0xa4c <nokia_lcd_write_char+0xd0>
     a4a:	40 e0       	ldi	r20, 0x00	; 0
     a4c:	8d 0d       	add	r24, r13
     a4e:	0e 94 a0 04 	call	0x940	; 0x940 <nokia_lcd_set_pixel>
     a52:	e3 94       	inc	r14
     a54:	db cf       	rjmp	.-74     	; 0xa0c <nokia_lcd_write_char+0x90>
     a56:	d3 94       	inc	r13
     a58:	d3 cf       	rjmp	.-90     	; 0xa00 <nokia_lcd_write_char+0x84>
     a5a:	80 91 24 03 	lds	r24, 0x0324	; 0x800324 <nokia_lcd+0x1f8>
     a5e:	91 e0       	ldi	r25, 0x01	; 1
     a60:	98 0f       	add	r25, r24
     a62:	8f 2d       	mov	r24, r15
     a64:	88 0f       	add	r24, r24
     a66:	88 0f       	add	r24, r24
     a68:	8f 0d       	add	r24, r15
     a6a:	89 0f       	add	r24, r25
     a6c:	84 35       	cpi	r24, 0x54	; 84
     a6e:	18 f4       	brcc	.+6      	; 0xa76 <nokia_lcd_write_char+0xfa>
     a70:	80 93 24 03 	sts	0x0324, r24	; 0x800324 <nokia_lcd+0x1f8>
     a74:	0b c0       	rjmp	.+22     	; 0xa8c <nokia_lcd_write_char+0x110>
     a76:	10 92 24 03 	sts	0x0324, r1	; 0x800324 <nokia_lcd+0x1f8>
     a7a:	80 91 25 03 	lds	r24, 0x0325	; 0x800325 <nokia_lcd+0x1f9>
     a7e:	8f 5f       	subi	r24, 0xFF	; 255
     a80:	97 e0       	ldi	r25, 0x07	; 7
     a82:	f9 9e       	mul	r15, r25
     a84:	80 0d       	add	r24, r0
     a86:	11 24       	eor	r1, r1
     a88:	80 93 25 03 	sts	0x0325, r24	; 0x800325 <nokia_lcd+0x1f9>
     a8c:	80 91 25 03 	lds	r24, 0x0325	; 0x800325 <nokia_lcd+0x1f9>
     a90:	80 33       	cpi	r24, 0x30	; 48
     a92:	20 f0       	brcs	.+8      	; 0xa9c <nokia_lcd_write_char+0x120>
     a94:	10 92 24 03 	sts	0x0324, r1	; 0x800324 <nokia_lcd+0x1f8>
     a98:	10 92 25 03 	sts	0x0325, r1	; 0x800325 <nokia_lcd+0x1f9>
     a9c:	0f 90       	pop	r0
     a9e:	0f 90       	pop	r0
     aa0:	0f 90       	pop	r0
     aa2:	0f 90       	pop	r0
     aa4:	0f 90       	pop	r0
     aa6:	df 91       	pop	r29
     aa8:	cf 91       	pop	r28
     aaa:	1f 91       	pop	r17
     aac:	0f 91       	pop	r16
     aae:	ff 90       	pop	r15
     ab0:	ef 90       	pop	r14
     ab2:	df 90       	pop	r13
     ab4:	bf 90       	pop	r11
     ab6:	af 90       	pop	r10
     ab8:	9f 90       	pop	r9
     aba:	8f 90       	pop	r8
     abc:	08 95       	ret

00000abe <nokia_lcd_custom>:
     abe:	80 32       	cpi	r24, 0x20	; 32
     ac0:	3c f4       	brge	.+14     	; 0xad0 <nokia_lcd_custom+0x12>
     ac2:	e8 2f       	mov	r30, r24
     ac4:	ee 0f       	add	r30, r30
     ac6:	ff 0b       	sbc	r31, r31
     ac8:	e6 56       	subi	r30, 0x66	; 102
     aca:	fc 4f       	sbci	r31, 0xFC	; 252
     acc:	71 83       	std	Z+1, r23	; 0x01
     ace:	60 83       	st	Z, r22
     ad0:	08 95       	ret

00000ad2 <nokia_lcd_write_string>:
     ad2:	1f 93       	push	r17
     ad4:	cf 93       	push	r28
     ad6:	df 93       	push	r29
     ad8:	16 2f       	mov	r17, r22
     ada:	ec 01       	movw	r28, r24
     adc:	89 91       	ld	r24, Y+
     ade:	88 23       	and	r24, r24
     ae0:	21 f0       	breq	.+8      	; 0xaea <nokia_lcd_write_string+0x18>
     ae2:	61 2f       	mov	r22, r17
     ae4:	0e 94 be 04 	call	0x97c	; 0x97c <nokia_lcd_write_char>
     ae8:	f9 cf       	rjmp	.-14     	; 0xadc <nokia_lcd_write_string+0xa>
     aea:	df 91       	pop	r29
     aec:	cf 91       	pop	r28
     aee:	1f 91       	pop	r17
     af0:	08 95       	ret

00000af2 <nokia_lcd_set_cursor>:
     af2:	80 93 24 03 	sts	0x0324, r24	; 0x800324 <nokia_lcd+0x1f8>
     af6:	60 93 25 03 	sts	0x0325, r22	; 0x800325 <nokia_lcd+0x1f9>
     afa:	08 95       	ret

00000afc <nokia_lcd_render>:
     afc:	cf 93       	push	r28
     afe:	df 93       	push	r29
     b00:	80 e8       	ldi	r24, 0x80	; 128
     b02:	0e 94 3e 04 	call	0x87c	; 0x87c <write_cmd>
     b06:	80 e4       	ldi	r24, 0x40	; 64
     b08:	0e 94 3e 04 	call	0x87c	; 0x87c <write_cmd>
     b0c:	cc e2       	ldi	r28, 0x2C	; 44
     b0e:	d1 e0       	ldi	r29, 0x01	; 1
     b10:	61 e0       	ldi	r22, 0x01	; 1
     b12:	89 91       	ld	r24, Y+
     b14:	0e 94 22 04 	call	0x844	; 0x844 <write>
     b18:	83 e0       	ldi	r24, 0x03	; 3
     b1a:	c4 32       	cpi	r28, 0x24	; 36
     b1c:	d8 07       	cpc	r29, r24
     b1e:	c1 f7       	brne	.-16     	; 0xb10 <nokia_lcd_render+0x14>
     b20:	df 91       	pop	r29
     b22:	cf 91       	pop	r28
     b24:	08 95       	ret

00000b26 <nokia_lcd_drawline>:
     b26:	4f 92       	push	r4
     b28:	5f 92       	push	r5
     b2a:	6f 92       	push	r6
     b2c:	7f 92       	push	r7
     b2e:	8f 92       	push	r8
     b30:	9f 92       	push	r9
     b32:	af 92       	push	r10
     b34:	bf 92       	push	r11
     b36:	cf 92       	push	r12
     b38:	df 92       	push	r13
     b3a:	ef 92       	push	r14
     b3c:	ff 92       	push	r15
     b3e:	cf 93       	push	r28
     b40:	df 93       	push	r29
     b42:	cd b7       	in	r28, 0x3d	; 61
     b44:	de b7       	in	r29, 0x3e	; 62
     b46:	2e 97       	sbiw	r28, 0x0e	; 14
     b48:	0f b6       	in	r0, 0x3f	; 63
     b4a:	f8 94       	cli
     b4c:	de bf       	out	0x3e, r29	; 62
     b4e:	0f be       	out	0x3f, r0	; 63
     b50:	cd bf       	out	0x3d, r28	; 61
     b52:	8d 87       	std	Y+13, r24	; 0x0d
     b54:	69 87       	std	Y+9, r22	; 0x09
     b56:	f2 2e       	mov	r15, r18
     b58:	64 2f       	mov	r22, r20
     b5a:	70 e0       	ldi	r23, 0x00	; 0
     b5c:	68 1b       	sub	r22, r24
     b5e:	71 09       	sbc	r23, r1
     b60:	07 2e       	mov	r0, r23
     b62:	00 0c       	add	r0, r0
     b64:	88 0b       	sbc	r24, r24
     b66:	99 0b       	sbc	r25, r25
     b68:	0e 94 e5 0a 	call	0x15ca	; 0x15ca <__floatsisf>
     b6c:	4b 01       	movw	r8, r22
     b6e:	5c 01       	movw	r10, r24
     b70:	6f 2d       	mov	r22, r15
     b72:	70 e0       	ldi	r23, 0x00	; 0
     b74:	29 85       	ldd	r18, Y+9	; 0x09
     b76:	62 1b       	sub	r22, r18
     b78:	71 09       	sbc	r23, r1
     b7a:	07 2e       	mov	r0, r23
     b7c:	00 0c       	add	r0, r0
     b7e:	88 0b       	sbc	r24, r24
     b80:	99 0b       	sbc	r25, r25
     b82:	0e 94 e5 0a 	call	0x15ca	; 0x15ca <__floatsisf>
     b86:	6b 01       	movw	r12, r22
     b88:	7c 01       	movw	r14, r24
     b8a:	24 01       	movw	r4, r8
     b8c:	35 01       	movw	r6, r10
     b8e:	e8 94       	clt
     b90:	77 f8       	bld	r7, 7
     b92:	dc 01       	movw	r26, r24
     b94:	cb 01       	movw	r24, r22
     b96:	bf 77       	andi	r27, 0x7F	; 127
     b98:	89 83       	std	Y+1, r24	; 0x01
     b9a:	9a 83       	std	Y+2, r25	; 0x02
     b9c:	ab 83       	std	Y+3, r26	; 0x03
     b9e:	bc 83       	std	Y+4, r27	; 0x04
     ba0:	9c 01       	movw	r18, r24
     ba2:	ad 01       	movw	r20, r26
     ba4:	c3 01       	movw	r24, r6
     ba6:	b2 01       	movw	r22, r4
     ba8:	0e 94 71 0b 	call	0x16e2	; 0x16e2 <__gesf2>
     bac:	87 ff       	sbrs	r24, 7
     bae:	04 c0       	rjmp	.+8      	; 0xbb8 <nokia_lcd_drawline+0x92>
     bb0:	49 80       	ldd	r4, Y+1	; 0x01
     bb2:	5a 80       	ldd	r5, Y+2	; 0x02
     bb4:	6b 80       	ldd	r6, Y+3	; 0x03
     bb6:	7c 80       	ldd	r7, Y+4	; 0x04
     bb8:	a3 01       	movw	r20, r6
     bba:	92 01       	movw	r18, r4
     bbc:	c5 01       	movw	r24, r10
     bbe:	b4 01       	movw	r22, r8
     bc0:	0e 94 42 0a 	call	0x1484	; 0x1484 <__divsf3>
     bc4:	69 83       	std	Y+1, r22	; 0x01
     bc6:	7a 83       	std	Y+2, r23	; 0x02
     bc8:	8b 83       	std	Y+3, r24	; 0x03
     bca:	9c 83       	std	Y+4, r25	; 0x04
     bcc:	a3 01       	movw	r20, r6
     bce:	92 01       	movw	r18, r4
     bd0:	c7 01       	movw	r24, r14
     bd2:	b6 01       	movw	r22, r12
     bd4:	0e 94 42 0a 	call	0x1484	; 0x1484 <__divsf3>
     bd8:	6d 83       	std	Y+5, r22	; 0x05
     bda:	7e 83       	std	Y+6, r23	; 0x06
     bdc:	8f 83       	std	Y+7, r24	; 0x07
     bde:	98 87       	std	Y+8, r25	; 0x08
     be0:	ad 85       	ldd	r26, Y+13	; 0x0d
     be2:	6a 2f       	mov	r22, r26
     be4:	70 e0       	ldi	r23, 0x00	; 0
     be6:	80 e0       	ldi	r24, 0x00	; 0
     be8:	90 e0       	ldi	r25, 0x00	; 0
     bea:	0e 94 e3 0a 	call	0x15c6	; 0x15c6 <__floatunsisf>
     bee:	6b 01       	movw	r12, r22
     bf0:	7c 01       	movw	r14, r24
     bf2:	b9 85       	ldd	r27, Y+9	; 0x09
     bf4:	6b 2f       	mov	r22, r27
     bf6:	70 e0       	ldi	r23, 0x00	; 0
     bf8:	80 e0       	ldi	r24, 0x00	; 0
     bfa:	90 e0       	ldi	r25, 0x00	; 0
     bfc:	0e 94 e3 0a 	call	0x15c6	; 0x15c6 <__floatunsisf>
     c00:	4b 01       	movw	r8, r22
     c02:	5c 01       	movw	r10, r24
     c04:	21 e0       	ldi	r18, 0x01	; 1
     c06:	30 e0       	ldi	r19, 0x00	; 0
     c08:	3e 87       	std	Y+14, r19	; 0x0e
     c0a:	2d 87       	std	Y+13, r18	; 0x0d
     c0c:	ad 85       	ldd	r26, Y+13	; 0x0d
     c0e:	be 85       	ldd	r27, Y+14	; 0x0e
     c10:	bd 01       	movw	r22, r26
     c12:	bb 0f       	add	r27, r27
     c14:	88 0b       	sbc	r24, r24
     c16:	99 0b       	sbc	r25, r25
     c18:	0e 94 e5 0a 	call	0x15ca	; 0x15ca <__floatsisf>
     c1c:	9b 01       	movw	r18, r22
     c1e:	ac 01       	movw	r20, r24
     c20:	c3 01       	movw	r24, r6
     c22:	b2 01       	movw	r22, r4
     c24:	0e 94 71 0b 	call	0x16e2	; 0x16e2 <__gesf2>
     c28:	87 fd       	sbrc	r24, 7
     c2a:	2c c0       	rjmp	.+88     	; 0xc84 <nokia_lcd_drawline+0x15e>
     c2c:	c5 01       	movw	r24, r10
     c2e:	b4 01       	movw	r22, r8
     c30:	0e 94 b4 0a 	call	0x1568	; 0x1568 <__fixunssfsi>
     c34:	69 87       	std	Y+9, r22	; 0x09
     c36:	7a 87       	std	Y+10, r23	; 0x0a
     c38:	8b 87       	std	Y+11, r24	; 0x0b
     c3a:	9c 87       	std	Y+12, r25	; 0x0c
     c3c:	c7 01       	movw	r24, r14
     c3e:	b6 01       	movw	r22, r12
     c40:	0e 94 b4 0a 	call	0x1568	; 0x1568 <__fixunssfsi>
     c44:	dc 01       	movw	r26, r24
     c46:	cb 01       	movw	r24, r22
     c48:	41 e0       	ldi	r20, 0x01	; 1
     c4a:	69 85       	ldd	r22, Y+9	; 0x09
     c4c:	0e 94 a0 04 	call	0x940	; 0x940 <nokia_lcd_set_pixel>
     c50:	29 81       	ldd	r18, Y+1	; 0x01
     c52:	3a 81       	ldd	r19, Y+2	; 0x02
     c54:	4b 81       	ldd	r20, Y+3	; 0x03
     c56:	5c 81       	ldd	r21, Y+4	; 0x04
     c58:	c7 01       	movw	r24, r14
     c5a:	b6 01       	movw	r22, r12
     c5c:	0e 94 d6 09 	call	0x13ac	; 0x13ac <__addsf3>
     c60:	6b 01       	movw	r12, r22
     c62:	7c 01       	movw	r14, r24
     c64:	2d 81       	ldd	r18, Y+5	; 0x05
     c66:	3e 81       	ldd	r19, Y+6	; 0x06
     c68:	4f 81       	ldd	r20, Y+7	; 0x07
     c6a:	58 85       	ldd	r21, Y+8	; 0x08
     c6c:	c5 01       	movw	r24, r10
     c6e:	b4 01       	movw	r22, r8
     c70:	0e 94 d6 09 	call	0x13ac	; 0x13ac <__addsf3>
     c74:	4b 01       	movw	r8, r22
     c76:	5c 01       	movw	r10, r24
     c78:	8d 85       	ldd	r24, Y+13	; 0x0d
     c7a:	9e 85       	ldd	r25, Y+14	; 0x0e
     c7c:	01 96       	adiw	r24, 0x01	; 1
     c7e:	9e 87       	std	Y+14, r25	; 0x0e
     c80:	8d 87       	std	Y+13, r24	; 0x0d
     c82:	c4 cf       	rjmp	.-120    	; 0xc0c <nokia_lcd_drawline+0xe6>
     c84:	2e 96       	adiw	r28, 0x0e	; 14
     c86:	0f b6       	in	r0, 0x3f	; 63
     c88:	f8 94       	cli
     c8a:	de bf       	out	0x3e, r29	; 62
     c8c:	0f be       	out	0x3f, r0	; 63
     c8e:	cd bf       	out	0x3d, r28	; 61
     c90:	df 91       	pop	r29
     c92:	cf 91       	pop	r28
     c94:	ff 90       	pop	r15
     c96:	ef 90       	pop	r14
     c98:	df 90       	pop	r13
     c9a:	cf 90       	pop	r12
     c9c:	bf 90       	pop	r11
     c9e:	af 90       	pop	r10
     ca0:	9f 90       	pop	r9
     ca2:	8f 90       	pop	r8
     ca4:	7f 90       	pop	r7
     ca6:	6f 90       	pop	r6
     ca8:	5f 90       	pop	r5
     caa:	4f 90       	pop	r4
     cac:	08 95       	ret

00000cae <nokia_lcd_drawrect>:
     cae:	0f 93       	push	r16
     cb0:	1f 93       	push	r17
     cb2:	cf 93       	push	r28
     cb4:	df 93       	push	r29
     cb6:	c8 2f       	mov	r28, r24
     cb8:	16 2f       	mov	r17, r22
     cba:	04 2f       	mov	r16, r20
     cbc:	d2 2f       	mov	r29, r18
     cbe:	26 2f       	mov	r18, r22
     cc0:	0e 94 93 05 	call	0xb26	; 0xb26 <nokia_lcd_drawline>
     cc4:	2d 2f       	mov	r18, r29
     cc6:	40 2f       	mov	r20, r16
     cc8:	61 2f       	mov	r22, r17
     cca:	80 2f       	mov	r24, r16
     ccc:	0e 94 93 05 	call	0xb26	; 0xb26 <nokia_lcd_drawline>
     cd0:	2d 2f       	mov	r18, r29
     cd2:	4c 2f       	mov	r20, r28
     cd4:	6d 2f       	mov	r22, r29
     cd6:	80 2f       	mov	r24, r16
     cd8:	0e 94 93 05 	call	0xb26	; 0xb26 <nokia_lcd_drawline>
     cdc:	21 2f       	mov	r18, r17
     cde:	4c 2f       	mov	r20, r28
     ce0:	6d 2f       	mov	r22, r29
     ce2:	8c 2f       	mov	r24, r28
     ce4:	df 91       	pop	r29
     ce6:	cf 91       	pop	r28
     ce8:	1f 91       	pop	r17
     cea:	0f 91       	pop	r16
     cec:	0c 94 93 05 	jmp	0xb26	; 0xb26 <nokia_lcd_drawline>

00000cf0 <nokia_lcd_drawcircle>:
     cf0:	7f 92       	push	r7
     cf2:	8f 92       	push	r8
     cf4:	9f 92       	push	r9
     cf6:	af 92       	push	r10
     cf8:	bf 92       	push	r11
     cfa:	cf 92       	push	r12
     cfc:	df 92       	push	r13
     cfe:	ef 92       	push	r14
     d00:	ff 92       	push	r15
     d02:	0f 93       	push	r16
     d04:	1f 93       	push	r17
     d06:	cf 93       	push	r28
     d08:	df 93       	push	r29
     d0a:	d8 2e       	mov	r13, r24
     d0c:	c6 2e       	mov	r12, r22
     d0e:	c4 2f       	mov	r28, r20
     d10:	d0 e0       	ldi	r29, 0x00	; 0
     d12:	e1 2c       	mov	r14, r1
     d14:	f1 2c       	mov	r15, r1
     d16:	00 e0       	ldi	r16, 0x00	; 0
     d18:	10 e0       	ldi	r17, 0x00	; 0
     d1a:	41 e0       	ldi	r20, 0x01	; 1
     d1c:	ac 2c       	mov	r10, r12
     d1e:	a0 0e       	add	r10, r16
     d20:	6a 2d       	mov	r22, r10
     d22:	bc 2e       	mov	r11, r28
     d24:	bd 0c       	add	r11, r13
     d26:	8b 2d       	mov	r24, r11
     d28:	0e 94 a0 04 	call	0x940	; 0x940 <nokia_lcd_set_pixel>
     d2c:	41 e0       	ldi	r20, 0x01	; 1
     d2e:	8c 2e       	mov	r8, r28
     d30:	8c 0c       	add	r8, r12
     d32:	68 2d       	mov	r22, r8
     d34:	9d 2c       	mov	r9, r13
     d36:	90 0e       	add	r9, r16
     d38:	89 2d       	mov	r24, r9
     d3a:	0e 94 a0 04 	call	0x940	; 0x940 <nokia_lcd_set_pixel>
     d3e:	41 e0       	ldi	r20, 0x01	; 1
     d40:	68 2d       	mov	r22, r8
     d42:	7d 2c       	mov	r7, r13
     d44:	70 1a       	sub	r7, r16
     d46:	87 2d       	mov	r24, r7
     d48:	0e 94 a0 04 	call	0x940	; 0x940 <nokia_lcd_set_pixel>
     d4c:	41 e0       	ldi	r20, 0x01	; 1
     d4e:	6a 2d       	mov	r22, r10
     d50:	8d 2c       	mov	r8, r13
     d52:	8c 1a       	sub	r8, r28
     d54:	88 2d       	mov	r24, r8
     d56:	0e 94 a0 04 	call	0x940	; 0x940 <nokia_lcd_set_pixel>
     d5a:	41 e0       	ldi	r20, 0x01	; 1
     d5c:	ac 2c       	mov	r10, r12
     d5e:	a0 1a       	sub	r10, r16
     d60:	6a 2d       	mov	r22, r10
     d62:	88 2d       	mov	r24, r8
     d64:	0e 94 a0 04 	call	0x940	; 0x940 <nokia_lcd_set_pixel>
     d68:	41 e0       	ldi	r20, 0x01	; 1
     d6a:	8c 2c       	mov	r8, r12
     d6c:	8c 1a       	sub	r8, r28
     d6e:	68 2d       	mov	r22, r8
     d70:	87 2d       	mov	r24, r7
     d72:	0e 94 a0 04 	call	0x940	; 0x940 <nokia_lcd_set_pixel>
     d76:	41 e0       	ldi	r20, 0x01	; 1
     d78:	68 2d       	mov	r22, r8
     d7a:	89 2d       	mov	r24, r9
     d7c:	0e 94 a0 04 	call	0x940	; 0x940 <nokia_lcd_set_pixel>
     d80:	41 e0       	ldi	r20, 0x01	; 1
     d82:	6a 2d       	mov	r22, r10
     d84:	8b 2d       	mov	r24, r11
     d86:	0e 94 a0 04 	call	0x940	; 0x940 <nokia_lcd_set_pixel>
     d8a:	1e 14       	cp	r1, r14
     d8c:	1f 04       	cpc	r1, r15
     d8e:	5c f0       	brlt	.+22     	; 0xda6 <nokia_lcd_drawcircle+0xb6>
     d90:	0f 5f       	subi	r16, 0xFF	; 255
     d92:	1f 4f       	sbci	r17, 0xFF	; 255
     d94:	c8 01       	movw	r24, r16
     d96:	88 0f       	add	r24, r24
     d98:	99 1f       	adc	r25, r25
     d9a:	01 96       	adiw	r24, 0x01	; 1
     d9c:	e8 0e       	add	r14, r24
     d9e:	f9 1e       	adc	r15, r25
     da0:	1e 14       	cp	r1, r14
     da2:	1f 04       	cpc	r1, r15
     da4:	3c f4       	brge	.+14     	; 0xdb4 <nokia_lcd_drawcircle+0xc4>
     da6:	21 97       	sbiw	r28, 0x01	; 1
     da8:	ce 01       	movw	r24, r28
     daa:	88 0f       	add	r24, r24
     dac:	99 1f       	adc	r25, r25
     dae:	01 96       	adiw	r24, 0x01	; 1
     db0:	e8 1a       	sub	r14, r24
     db2:	f9 0a       	sbc	r15, r25
     db4:	c0 17       	cp	r28, r16
     db6:	d1 07       	cpc	r29, r17
     db8:	0c f0       	brlt	.+2      	; 0xdbc <nokia_lcd_drawcircle+0xcc>
     dba:	af cf       	rjmp	.-162    	; 0xd1a <nokia_lcd_drawcircle+0x2a>
     dbc:	df 91       	pop	r29
     dbe:	cf 91       	pop	r28
     dc0:	1f 91       	pop	r17
     dc2:	0f 91       	pop	r16
     dc4:	ff 90       	pop	r15
     dc6:	ef 90       	pop	r14
     dc8:	df 90       	pop	r13
     dca:	cf 90       	pop	r12
     dcc:	bf 90       	pop	r11
     dce:	af 90       	pop	r10
     dd0:	9f 90       	pop	r9
     dd2:	8f 90       	pop	r8
     dd4:	7f 90       	pop	r7
     dd6:	08 95       	ret

00000dd8 <printint>:
     dd8:	4f 92       	push	r4
     dda:	5f 92       	push	r5
     ddc:	6f 92       	push	r6
     dde:	7f 92       	push	r7
     de0:	bf 92       	push	r11
     de2:	cf 92       	push	r12
     de4:	df 92       	push	r13
     de6:	ef 92       	push	r14
     de8:	ff 92       	push	r15
     dea:	0f 93       	push	r16
     dec:	1f 93       	push	r17
     dee:	cf 93       	push	r28
     df0:	df 93       	push	r29
     df2:	cd b7       	in	r28, 0x3d	; 61
     df4:	de b7       	in	r29, 0x3e	; 62
     df6:	6e 97       	sbiw	r28, 0x1e	; 30
     df8:	0f b6       	in	r0, 0x3f	; 63
     dfa:	f8 94       	cli
     dfc:	de bf       	out	0x3e, r29	; 62
     dfe:	0f be       	out	0x3f, r0	; 63
     e00:	cd bf       	out	0x3d, r28	; 61
     e02:	97 fd       	sbrc	r25, 7
     e04:	1d c0       	rjmp	.+58     	; 0xe40 <printint+0x68>
     e06:	8e 01       	movw	r16, r28
     e08:	0f 5f       	subi	r16, 0xFF	; 255
     e0a:	1f 4f       	sbci	r17, 0xFF	; 255
     e0c:	78 01       	movw	r14, r16
     e0e:	4a e0       	ldi	r20, 0x0A	; 10
     e10:	44 2e       	mov	r4, r20
     e12:	51 2c       	mov	r5, r1
     e14:	61 2c       	mov	r6, r1
     e16:	71 2c       	mov	r7, r1
     e18:	0f 5f       	subi	r16, 0xFF	; 255
     e1a:	1f 4f       	sbci	r17, 0xFF	; 255
     e1c:	68 01       	movw	r12, r16
     e1e:	21 e0       	ldi	r18, 0x01	; 1
     e20:	c2 1a       	sub	r12, r18
     e22:	d1 08       	sbc	r13, r1
     e24:	a3 01       	movw	r20, r6
     e26:	92 01       	movw	r18, r4
     e28:	0e 94 a2 09 	call	0x1344	; 0x1344 <__divmodsi4>
     e2c:	60 5d       	subi	r22, 0xD0	; 208
     e2e:	d6 01       	movw	r26, r12
     e30:	6c 93       	st	X, r22
     e32:	ca 01       	movw	r24, r20
     e34:	b9 01       	movw	r22, r18
     e36:	23 2b       	or	r18, r19
     e38:	24 2b       	or	r18, r20
     e3a:	25 2b       	or	r18, r21
     e3c:	69 f7       	brne	.-38     	; 0xe18 <printint+0x40>
     e3e:	21 c0       	rjmp	.+66     	; 0xe82 <printint+0xaa>
     e40:	2d e2       	ldi	r18, 0x2D	; 45
     e42:	29 83       	std	Y+1, r18	; 0x01
     e44:	8e 01       	movw	r16, r28
     e46:	0e 5f       	subi	r16, 0xFE	; 254
     e48:	1f 4f       	sbci	r17, 0xFF	; 255
     e4a:	78 01       	movw	r14, r16
     e4c:	2a e0       	ldi	r18, 0x0A	; 10
     e4e:	42 2e       	mov	r4, r18
     e50:	51 2c       	mov	r5, r1
     e52:	61 2c       	mov	r6, r1
     e54:	71 2c       	mov	r7, r1
     e56:	30 e3       	ldi	r19, 0x30	; 48
     e58:	b3 2e       	mov	r11, r19
     e5a:	0f 5f       	subi	r16, 0xFF	; 255
     e5c:	1f 4f       	sbci	r17, 0xFF	; 255
     e5e:	68 01       	movw	r12, r16
     e60:	b1 e0       	ldi	r27, 0x01	; 1
     e62:	cb 1a       	sub	r12, r27
     e64:	d1 08       	sbc	r13, r1
     e66:	a3 01       	movw	r20, r6
     e68:	92 01       	movw	r18, r4
     e6a:	0e 94 a2 09 	call	0x1344	; 0x1344 <__divmodsi4>
     e6e:	8b 2d       	mov	r24, r11
     e70:	86 1b       	sub	r24, r22
     e72:	f6 01       	movw	r30, r12
     e74:	80 83       	st	Z, r24
     e76:	ca 01       	movw	r24, r20
     e78:	b9 01       	movw	r22, r18
     e7a:	23 2b       	or	r18, r19
     e7c:	24 2b       	or	r18, r20
     e7e:	25 2b       	or	r18, r21
     e80:	61 f7       	brne	.-40     	; 0xe5a <printint+0x82>
     e82:	f7 01       	movw	r30, r14
     e84:	d8 01       	movw	r26, r16
     e86:	1c 92       	st	X, r1
     e88:	01 50       	subi	r16, 0x01	; 1
     e8a:	11 09       	sbc	r17, r1
     e8c:	0e 17       	cp	r16, r30
     e8e:	1f 07       	cpc	r17, r31
     e90:	30 f0       	brcs	.+12     	; 0xe9e <printint+0xc6>
     e92:	80 81       	ld	r24, Z
     e94:	d8 01       	movw	r26, r16
     e96:	9c 91       	ld	r25, X
     e98:	91 93       	st	Z+, r25
     e9a:	8c 93       	st	X, r24
     e9c:	f5 cf       	rjmp	.-22     	; 0xe88 <printint+0xb0>
     e9e:	8e 01       	movw	r16, r28
     ea0:	0f 5f       	subi	r16, 0xFF	; 255
     ea2:	1f 4f       	sbci	r17, 0xFF	; 255
     ea4:	f8 01       	movw	r30, r16
     ea6:	81 91       	ld	r24, Z+
     ea8:	8f 01       	movw	r16, r30
     eaa:	88 23       	and	r24, r24
     eac:	19 f0       	breq	.+6      	; 0xeb4 <printint+0xdc>
     eae:	0e 94 05 09 	call	0x120a	; 0x120a <USART_SendByte>
     eb2:	f8 cf       	rjmp	.-16     	; 0xea4 <printint+0xcc>
     eb4:	6e 96       	adiw	r28, 0x1e	; 30
     eb6:	0f b6       	in	r0, 0x3f	; 63
     eb8:	f8 94       	cli
     eba:	de bf       	out	0x3e, r29	; 62
     ebc:	0f be       	out	0x3f, r0	; 63
     ebe:	cd bf       	out	0x3d, r28	; 61
     ec0:	df 91       	pop	r29
     ec2:	cf 91       	pop	r28
     ec4:	1f 91       	pop	r17
     ec6:	0f 91       	pop	r16
     ec8:	ff 90       	pop	r15
     eca:	ef 90       	pop	r14
     ecc:	df 90       	pop	r13
     ece:	cf 90       	pop	r12
     ed0:	bf 90       	pop	r11
     ed2:	7f 90       	pop	r7
     ed4:	6f 90       	pop	r6
     ed6:	5f 90       	pop	r5
     ed8:	4f 90       	pop	r4
     eda:	08 95       	ret

00000edc <printhex>:
     edc:	8f 92       	push	r8
     ede:	9f 92       	push	r9
     ee0:	af 92       	push	r10
     ee2:	bf 92       	push	r11
     ee4:	cf 92       	push	r12
     ee6:	df 92       	push	r13
     ee8:	ef 92       	push	r14
     eea:	ff 92       	push	r15
     eec:	0f 93       	push	r16
     eee:	1f 93       	push	r17
     ef0:	cf 93       	push	r28
     ef2:	df 93       	push	r29
     ef4:	cd b7       	in	r28, 0x3d	; 61
     ef6:	de b7       	in	r29, 0x3e	; 62
     ef8:	6e 97       	sbiw	r28, 0x1e	; 30
     efa:	0f b6       	in	r0, 0x3f	; 63
     efc:	f8 94       	cli
     efe:	de bf       	out	0x3e, r29	; 62
     f00:	0f be       	out	0x3f, r0	; 63
     f02:	cd bf       	out	0x3d, r28	; 61
     f04:	4b 01       	movw	r8, r22
     f06:	5c 01       	movw	r10, r24
     f08:	de 01       	movw	r26, r28
     f0a:	11 96       	adiw	r26, 0x01	; 1
     f0c:	8d 01       	movw	r16, r26
     f0e:	fd 01       	movw	r30, r26
     f10:	31 96       	adiw	r30, 0x01	; 1
     f12:	75 01       	movw	r14, r10
     f14:	64 01       	movw	r12, r8
     f16:	2f e0       	ldi	r18, 0x0F	; 15
     f18:	c2 22       	and	r12, r18
     f1a:	dd 24       	eor	r13, r13
     f1c:	ee 24       	eor	r14, r14
     f1e:	ff 24       	eor	r15, r15
     f20:	20 e3       	ldi	r18, 0x30	; 48
     f22:	2c 0d       	add	r18, r12
     f24:	2c 93       	st	X, r18
     f26:	24 e0       	ldi	r18, 0x04	; 4
     f28:	b6 94       	lsr	r11
     f2a:	a7 94       	ror	r10
     f2c:	97 94       	ror	r9
     f2e:	87 94       	ror	r8
     f30:	2a 95       	dec	r18
     f32:	d1 f7       	brne	.-12     	; 0xf28 <printhex+0x4c>
     f34:	81 14       	cp	r8, r1
     f36:	91 04       	cpc	r9, r1
     f38:	a1 04       	cpc	r10, r1
     f3a:	b1 04       	cpc	r11, r1
     f3c:	11 f0       	breq	.+4      	; 0xf42 <printhex+0x66>
     f3e:	df 01       	movw	r26, r30
     f40:	e6 cf       	rjmp	.-52     	; 0xf0e <printhex+0x32>
     f42:	60 31       	cpi	r22, 0x10	; 16
     f44:	71 05       	cpc	r23, r1
     f46:	81 05       	cpc	r24, r1
     f48:	91 05       	cpc	r25, r1
     f4a:	20 f4       	brcc	.+8      	; 0xf54 <printhex+0x78>
     f4c:	31 96       	adiw	r30, 0x01	; 1
     f4e:	80 e3       	ldi	r24, 0x30	; 48
     f50:	11 96       	adiw	r26, 0x01	; 1
     f52:	8c 93       	st	X, r24
     f54:	10 82       	st	Z, r1
     f56:	d8 01       	movw	r26, r16
     f58:	31 97       	sbiw	r30, 0x01	; 1
     f5a:	ea 17       	cp	r30, r26
     f5c:	fb 07       	cpc	r31, r27
     f5e:	60 f0       	brcs	.+24     	; 0xf78 <printhex+0x9c>
     f60:	9c 91       	ld	r25, X
     f62:	9a 33       	cpi	r25, 0x3A	; 58
     f64:	0c f0       	brlt	.+2      	; 0xf68 <printhex+0x8c>
     f66:	99 5d       	subi	r25, 0xD9	; 217
     f68:	80 81       	ld	r24, Z
     f6a:	8a 33       	cpi	r24, 0x3A	; 58
     f6c:	0c f0       	brlt	.+2      	; 0xf70 <printhex+0x94>
     f6e:	89 5d       	subi	r24, 0xD9	; 217
     f70:	8c 93       	st	X, r24
     f72:	90 83       	st	Z, r25
     f74:	11 96       	adiw	r26, 0x01	; 1
     f76:	f0 cf       	rjmp	.-32     	; 0xf58 <printhex+0x7c>
     f78:	f8 01       	movw	r30, r16
     f7a:	81 91       	ld	r24, Z+
     f7c:	8f 01       	movw	r16, r30
     f7e:	88 23       	and	r24, r24
     f80:	19 f0       	breq	.+6      	; 0xf88 <printhex+0xac>
     f82:	0e 94 05 09 	call	0x120a	; 0x120a <USART_SendByte>
     f86:	f8 cf       	rjmp	.-16     	; 0xf78 <printhex+0x9c>
     f88:	6e 96       	adiw	r28, 0x1e	; 30
     f8a:	0f b6       	in	r0, 0x3f	; 63
     f8c:	f8 94       	cli
     f8e:	de bf       	out	0x3e, r29	; 62
     f90:	0f be       	out	0x3f, r0	; 63
     f92:	cd bf       	out	0x3d, r28	; 61
     f94:	df 91       	pop	r29
     f96:	cf 91       	pop	r28
     f98:	1f 91       	pop	r17
     f9a:	0f 91       	pop	r16
     f9c:	ff 90       	pop	r15
     f9e:	ef 90       	pop	r14
     fa0:	df 90       	pop	r13
     fa2:	cf 90       	pop	r12
     fa4:	bf 90       	pop	r11
     fa6:	af 90       	pop	r10
     fa8:	9f 90       	pop	r9
     faa:	8f 90       	pop	r8
     fac:	08 95       	ret

00000fae <print>:
     fae:	cf 93       	push	r28
     fb0:	df 93       	push	r29
     fb2:	ec 01       	movw	r28, r24
     fb4:	89 91       	ld	r24, Y+
     fb6:	88 23       	and	r24, r24
     fb8:	19 f0       	breq	.+6      	; 0xfc0 <print+0x12>
     fba:	0e 94 05 09 	call	0x120a	; 0x120a <USART_SendByte>
     fbe:	fa cf       	rjmp	.-12     	; 0xfb4 <print+0x6>
     fc0:	df 91       	pop	r29
     fc2:	cf 91       	pop	r28
     fc4:	08 95       	ret

00000fc6 <printfloat>:
     fc6:	8f 92       	push	r8
     fc8:	9f 92       	push	r9
     fca:	af 92       	push	r10
     fcc:	bf 92       	push	r11
     fce:	cf 92       	push	r12
     fd0:	df 92       	push	r13
     fd2:	ef 92       	push	r14
     fd4:	ff 92       	push	r15
     fd6:	6b 01       	movw	r12, r22
     fd8:	7c 01       	movw	r14, r24
     fda:	0e 94 b4 0a 	call	0x1568	; 0x1568 <__fixunssfsi>
     fde:	4b 01       	movw	r8, r22
     fe0:	5c 01       	movw	r10, r24
     fe2:	0e 94 ec 06 	call	0xdd8	; 0xdd8 <printint>
     fe6:	81 e2       	ldi	r24, 0x21	; 33
     fe8:	91 e0       	ldi	r25, 0x01	; 1
     fea:	0e 94 d7 07 	call	0xfae	; 0xfae <print>
     fee:	c5 01       	movw	r24, r10
     ff0:	b4 01       	movw	r22, r8
     ff2:	0e 94 e3 0a 	call	0x15c6	; 0x15c6 <__floatunsisf>
     ff6:	9b 01       	movw	r18, r22
     ff8:	ac 01       	movw	r20, r24
     ffa:	c7 01       	movw	r24, r14
     ffc:	b6 01       	movw	r22, r12
     ffe:	0e 94 d5 09 	call	0x13aa	; 0x13aa <__subsf3>
    1002:	20 e0       	ldi	r18, 0x00	; 0
    1004:	30 e0       	ldi	r19, 0x00	; 0
    1006:	4a e7       	ldi	r20, 0x7A	; 122
    1008:	54 e4       	ldi	r21, 0x44	; 68
    100a:	0e 94 76 0b 	call	0x16ec	; 0x16ec <__mulsf3>
    100e:	0e 94 b4 0a 	call	0x1568	; 0x1568 <__fixunssfsi>
    1012:	6b 01       	movw	r12, r22
    1014:	7c 01       	movw	r14, r24
    1016:	84 e6       	ldi	r24, 0x64	; 100
    1018:	c8 16       	cp	r12, r24
    101a:	d1 04       	cpc	r13, r1
    101c:	e1 04       	cpc	r14, r1
    101e:	f1 04       	cpc	r15, r1
    1020:	70 f4       	brcc	.+28     	; 0x103e <printfloat+0x78>
    1022:	83 e2       	ldi	r24, 0x23	; 35
    1024:	91 e0       	ldi	r25, 0x01	; 1
    1026:	0e 94 d7 07 	call	0xfae	; 0xfae <print>
    102a:	8a e0       	ldi	r24, 0x0A	; 10
    102c:	c8 16       	cp	r12, r24
    102e:	d1 04       	cpc	r13, r1
    1030:	e1 04       	cpc	r14, r1
    1032:	f1 04       	cpc	r15, r1
    1034:	20 f4       	brcc	.+8      	; 0x103e <printfloat+0x78>
    1036:	83 e2       	ldi	r24, 0x23	; 35
    1038:	91 e0       	ldi	r25, 0x01	; 1
    103a:	0e 94 d7 07 	call	0xfae	; 0xfae <print>
    103e:	c7 01       	movw	r24, r14
    1040:	b6 01       	movw	r22, r12
    1042:	ff 90       	pop	r15
    1044:	ef 90       	pop	r14
    1046:	df 90       	pop	r13
    1048:	cf 90       	pop	r12
    104a:	bf 90       	pop	r11
    104c:	af 90       	pop	r10
    104e:	9f 90       	pop	r9
    1050:	8f 90       	pop	r8
    1052:	0c 94 ec 06 	jmp	0xdd8	; 0xdd8 <printint>

00001056 <uart_init>:
    1056:	cf 93       	push	r28
    1058:	c4 2f       	mov	r28, r20
    105a:	f8 94       	cli
    105c:	9b 01       	movw	r18, r22
    105e:	ac 01       	movw	r20, r24
    1060:	84 e0       	ldi	r24, 0x04	; 4
    1062:	22 0f       	add	r18, r18
    1064:	33 1f       	adc	r19, r19
    1066:	44 1f       	adc	r20, r20
    1068:	55 1f       	adc	r21, r21
    106a:	8a 95       	dec	r24
    106c:	d1 f7       	brne	.-12     	; 0x1062 <uart_init+0xc>
    106e:	60 e0       	ldi	r22, 0x00	; 0
    1070:	74 e2       	ldi	r23, 0x24	; 36
    1072:	84 ef       	ldi	r24, 0xF4	; 244
    1074:	90 e0       	ldi	r25, 0x00	; 0
    1076:	0e 94 80 09 	call	0x1300	; 0x1300 <__udivmodsi4>
    107a:	ba 01       	movw	r22, r20
    107c:	a9 01       	movw	r20, r18
    107e:	41 50       	subi	r20, 0x01	; 1
    1080:	51 09       	sbc	r21, r1
    1082:	61 09       	sbc	r22, r1
    1084:	71 09       	sbc	r23, r1
    1086:	bb 27       	eor	r27, r27
    1088:	a7 2f       	mov	r26, r23
    108a:	96 2f       	mov	r25, r22
    108c:	85 2f       	mov	r24, r21
    108e:	80 93 c5 00 	sts	0x00C5, r24	; 0x8000c5 <__DATA_REGION_ORIGIN__+0x65>
    1092:	40 93 c4 00 	sts	0x00C4, r20	; 0x8000c4 <__DATA_REGION_ORIGIN__+0x64>
    1096:	86 e0       	ldi	r24, 0x06	; 6
    1098:	80 93 c2 00 	sts	0x00C2, r24	; 0x8000c2 <__DATA_REGION_ORIGIN__+0x62>
    109c:	c1 11       	cpse	r28, r1
    109e:	02 c0       	rjmp	.+4      	; 0x10a4 <uart_init+0x4e>
    10a0:	88 e9       	ldi	r24, 0x98	; 152
    10a2:	01 c0       	rjmp	.+2      	; 0x10a6 <uart_init+0x50>
    10a4:	88 e1       	ldi	r24, 0x18	; 24
    10a6:	80 93 c1 00 	sts	0x00C1, r24	; 0x8000c1 <__DATA_REGION_ORIGIN__+0x61>
    10aa:	78 94       	sei
    10ac:	cf 91       	pop	r28
    10ae:	08 95       	ret

000010b0 <uart_flush>:
    10b0:	10 92 67 03 	sts	0x0367, r1	; 0x800367 <uart+0x41>
    10b4:	10 92 66 03 	sts	0x0366, r1	; 0x800366 <uart+0x40>
    10b8:	10 92 69 03 	sts	0x0369, r1	; 0x800369 <uart+0x43>
    10bc:	10 92 68 03 	sts	0x0368, r1	; 0x800368 <uart+0x42>
    10c0:	10 92 6b 03 	sts	0x036B, r1	; 0x80036b <uart+0x45>
    10c4:	10 92 6a 03 	sts	0x036A, r1	; 0x80036a <uart+0x44>
    10c8:	08 95       	ret

000010ca <uart_rxsize>:
    10ca:	80 91 6a 03 	lds	r24, 0x036A	; 0x80036a <uart+0x44>
    10ce:	90 91 6b 03 	lds	r25, 0x036B	; 0x80036b <uart+0x45>
    10d2:	08 95       	ret

000010d4 <uart_tx>:
    10d4:	90 91 c0 00 	lds	r25, 0x00C0	; 0x8000c0 <__DATA_REGION_ORIGIN__+0x60>
    10d8:	95 ff       	sbrs	r25, 5
    10da:	fc cf       	rjmp	.-8      	; 0x10d4 <uart_tx>
    10dc:	80 93 c6 00 	sts	0x00C6, r24	; 0x8000c6 <__DATA_REGION_ORIGIN__+0x66>
    10e0:	08 95       	ret

000010e2 <uart_rx_polled>:
    10e2:	80 91 c0 00 	lds	r24, 0x00C0	; 0x8000c0 <__DATA_REGION_ORIGIN__+0x60>
    10e6:	87 ff       	sbrs	r24, 7
    10e8:	fc cf       	rjmp	.-8      	; 0x10e2 <uart_rx_polled>
    10ea:	80 91 c6 00 	lds	r24, 0x00C6	; 0x8000c6 <__DATA_REGION_ORIGIN__+0x66>
    10ee:	08 95       	ret

000010f0 <uart_rx>:
    10f0:	20 91 66 03 	lds	r18, 0x0366	; 0x800366 <uart+0x40>
    10f4:	30 91 67 03 	lds	r19, 0x0367	; 0x800367 <uart+0x41>
    10f8:	80 91 68 03 	lds	r24, 0x0368	; 0x800368 <uart+0x42>
    10fc:	90 91 69 03 	lds	r25, 0x0369	; 0x800369 <uart+0x43>
    1100:	28 17       	cp	r18, r24
    1102:	39 07       	cpc	r19, r25
    1104:	a9 f3       	breq	.-22     	; 0x10f0 <uart_rx>
    1106:	f8 94       	cli
    1108:	e0 91 66 03 	lds	r30, 0x0366	; 0x800366 <uart+0x40>
    110c:	f0 91 67 03 	lds	r31, 0x0367	; 0x800367 <uart+0x41>
    1110:	ea 5d       	subi	r30, 0xDA	; 218
    1112:	fc 4f       	sbci	r31, 0xFC	; 252
    1114:	80 81       	ld	r24, Z
    1116:	20 91 66 03 	lds	r18, 0x0366	; 0x800366 <uart+0x40>
    111a:	30 91 67 03 	lds	r19, 0x0367	; 0x800367 <uart+0x41>
    111e:	2f 5f       	subi	r18, 0xFF	; 255
    1120:	3f 4f       	sbci	r19, 0xFF	; 255
    1122:	2f 73       	andi	r18, 0x3F	; 63
    1124:	33 27       	eor	r19, r19
    1126:	30 93 67 03 	sts	0x0367, r19	; 0x800367 <uart+0x41>
    112a:	20 93 66 03 	sts	0x0366, r18	; 0x800366 <uart+0x40>
    112e:	20 91 6a 03 	lds	r18, 0x036A	; 0x80036a <uart+0x44>
    1132:	30 91 6b 03 	lds	r19, 0x036B	; 0x80036b <uart+0x45>
    1136:	21 50       	subi	r18, 0x01	; 1
    1138:	31 09       	sbc	r19, r1
    113a:	30 93 6b 03 	sts	0x036B, r19	; 0x80036b <uart+0x45>
    113e:	20 93 6a 03 	sts	0x036A, r18	; 0x80036a <uart+0x44>
    1142:	78 94       	sei
    1144:	08 95       	ret

00001146 <__vector_18>:
    1146:	1f 92       	push	r1
    1148:	0f 92       	push	r0
    114a:	0f b6       	in	r0, 0x3f	; 63
    114c:	0f 92       	push	r0
    114e:	11 24       	eor	r1, r1
    1150:	2f 93       	push	r18
    1152:	3f 93       	push	r19
    1154:	8f 93       	push	r24
    1156:	9f 93       	push	r25
    1158:	af 93       	push	r26
    115a:	bf 93       	push	r27
    115c:	ef 93       	push	r30
    115e:	ff 93       	push	r31
    1160:	80 91 c0 00 	lds	r24, 0x00C0	; 0x8000c0 <__DATA_REGION_ORIGIN__+0x60>
    1164:	87 ff       	sbrs	r24, 7
    1166:	38 c0       	rjmp	.+112    	; 0x11d8 <__vector_18+0x92>
    1168:	80 91 68 03 	lds	r24, 0x0368	; 0x800368 <uart+0x42>
    116c:	90 91 69 03 	lds	r25, 0x0369	; 0x800369 <uart+0x43>
    1170:	01 96       	adiw	r24, 0x01	; 1
    1172:	8f 73       	andi	r24, 0x3F	; 63
    1174:	99 27       	eor	r25, r25
    1176:	20 91 66 03 	lds	r18, 0x0366	; 0x800366 <uart+0x40>
    117a:	30 91 67 03 	lds	r19, 0x0367	; 0x800367 <uart+0x41>
    117e:	82 17       	cp	r24, r18
    1180:	93 07       	cpc	r25, r19
    1182:	b9 f0       	breq	.+46     	; 0x11b2 <__vector_18+0x6c>
    1184:	e0 91 68 03 	lds	r30, 0x0368	; 0x800368 <uart+0x42>
    1188:	f0 91 69 03 	lds	r31, 0x0369	; 0x800369 <uart+0x43>
    118c:	20 91 c6 00 	lds	r18, 0x00C6	; 0x8000c6 <__DATA_REGION_ORIGIN__+0x66>
    1190:	ea 5d       	subi	r30, 0xDA	; 218
    1192:	fc 4f       	sbci	r31, 0xFC	; 252
    1194:	20 83       	st	Z, r18
    1196:	90 93 69 03 	sts	0x0369, r25	; 0x800369 <uart+0x43>
    119a:	80 93 68 03 	sts	0x0368, r24	; 0x800368 <uart+0x42>
    119e:	80 91 6a 03 	lds	r24, 0x036A	; 0x80036a <uart+0x44>
    11a2:	90 91 6b 03 	lds	r25, 0x036B	; 0x80036b <uart+0x45>
    11a6:	01 96       	adiw	r24, 0x01	; 1
    11a8:	90 93 6b 03 	sts	0x036B, r25	; 0x80036b <uart+0x45>
    11ac:	80 93 6a 03 	sts	0x036A, r24	; 0x80036a <uart+0x44>
    11b0:	d7 cf       	rjmp	.-82     	; 0x1160 <__vector_18+0x1a>
    11b2:	80 91 6c 03 	lds	r24, 0x036C	; 0x80036c <uart+0x46>
    11b6:	90 91 6d 03 	lds	r25, 0x036D	; 0x80036d <uart+0x47>
    11ba:	a0 91 6e 03 	lds	r26, 0x036E	; 0x80036e <uart+0x48>
    11be:	b0 91 6f 03 	lds	r27, 0x036F	; 0x80036f <uart+0x49>
    11c2:	01 96       	adiw	r24, 0x01	; 1
    11c4:	a1 1d       	adc	r26, r1
    11c6:	b1 1d       	adc	r27, r1
    11c8:	80 93 6c 03 	sts	0x036C, r24	; 0x80036c <uart+0x46>
    11cc:	90 93 6d 03 	sts	0x036D, r25	; 0x80036d <uart+0x47>
    11d0:	a0 93 6e 03 	sts	0x036E, r26	; 0x80036e <uart+0x48>
    11d4:	b0 93 6f 03 	sts	0x036F, r27	; 0x80036f <uart+0x49>
    11d8:	ff 91       	pop	r31
    11da:	ef 91       	pop	r30
    11dc:	bf 91       	pop	r27
    11de:	af 91       	pop	r26
    11e0:	9f 91       	pop	r25
    11e2:	8f 91       	pop	r24
    11e4:	3f 91       	pop	r19
    11e6:	2f 91       	pop	r18
    11e8:	0f 90       	pop	r0
    11ea:	0f be       	out	0x3f, r0	; 63
    11ec:	0f 90       	pop	r0
    11ee:	1f 90       	pop	r1
    11f0:	18 95       	reti

000011f2 <USART_Init>:
    11f2:	10 92 c5 00 	sts	0x00C5, r1	; 0x8000c5 <__DATA_REGION_ORIGIN__+0x65>
    11f6:	80 e1       	ldi	r24, 0x10	; 16
    11f8:	80 93 c4 00 	sts	0x00C4, r24	; 0x8000c4 <__DATA_REGION_ORIGIN__+0x64>
    11fc:	86 e0       	ldi	r24, 0x06	; 6
    11fe:	80 93 c2 00 	sts	0x00C2, r24	; 0x8000c2 <__DATA_REGION_ORIGIN__+0x62>
    1202:	88 e1       	ldi	r24, 0x18	; 24
    1204:	80 93 c1 00 	sts	0x00C1, r24	; 0x8000c1 <__DATA_REGION_ORIGIN__+0x61>
    1208:	08 95       	ret

0000120a <USART_SendByte>:
    120a:	90 91 c0 00 	lds	r25, 0x00C0	; 0x8000c0 <__DATA_REGION_ORIGIN__+0x60>
    120e:	95 ff       	sbrs	r25, 5
    1210:	fc cf       	rjmp	.-8      	; 0x120a <USART_SendByte>
    1212:	80 93 c6 00 	sts	0x00C6, r24	; 0x8000c6 <__DATA_REGION_ORIGIN__+0x66>
    1216:	08 95       	ret

00001218 <USART_ReceiveByte>:
    1218:	80 91 c0 00 	lds	r24, 0x00C0	; 0x8000c0 <__DATA_REGION_ORIGIN__+0x60>
    121c:	87 ff       	sbrs	r24, 7
    121e:	fc cf       	rjmp	.-8      	; 0x1218 <USART_ReceiveByte>
    1220:	80 91 c6 00 	lds	r24, 0x00C6	; 0x8000c6 <__DATA_REGION_ORIGIN__+0x66>
    1224:	08 95       	ret

00001226 <USART_puts>:
    1226:	cf 93       	push	r28
    1228:	df 93       	push	r29
    122a:	ec 01       	movw	r28, r24
    122c:	89 91       	ld	r24, Y+
    122e:	88 23       	and	r24, r24
    1230:	19 f0       	breq	.+6      	; 0x1238 <USART_puts+0x12>
    1232:	0e 94 05 09 	call	0x120a	; 0x120a <USART_SendByte>
    1236:	fa cf       	rjmp	.-12     	; 0x122c <USART_puts+0x6>
    1238:	8a e0       	ldi	r24, 0x0A	; 10
    123a:	df 91       	pop	r29
    123c:	cf 91       	pop	r28
    123e:	0c 94 05 09 	jmp	0x120a	; 0x120a <USART_SendByte>

00001242 <main>:
    1242:	40 e0       	ldi	r20, 0x00	; 0
    1244:	60 e0       	ldi	r22, 0x00	; 0
    1246:	71 ee       	ldi	r23, 0xE1	; 225
    1248:	80 e0       	ldi	r24, 0x00	; 0
    124a:	90 e0       	ldi	r25, 0x00	; 0
    124c:	0e 94 2b 08 	call	0x1056	; 0x1056 <uart_init>
    1250:	8a b1       	in	r24, 0x0a	; 10
    1252:	87 70       	andi	r24, 0x07	; 7
    1254:	8a b9       	out	0x0a, r24	; 10
    1256:	8b b1       	in	r24, 0x0b	; 11
    1258:	88 6f       	ori	r24, 0xF8	; 248
    125a:	8b b9       	out	0x0b, r24	; 11
    125c:	80 91 68 00 	lds	r24, 0x0068	; 0x800068 <__DATA_REGION_ORIGIN__+0x8>
    1260:	86 60       	ori	r24, 0x06	; 6
    1262:	80 93 68 00 	sts	0x0068, r24	; 0x800068 <__DATA_REGION_ORIGIN__+0x8>
    1266:	80 91 6d 00 	lds	r24, 0x006D	; 0x80006d <__DATA_REGION_ORIGIN__+0xd>
    126a:	88 6f       	ori	r24, 0xF8	; 248
    126c:	80 93 6d 00 	sts	0x006D, r24	; 0x80006d <__DATA_REGION_ORIGIN__+0xd>
    1270:	8a b1       	in	r24, 0x0a	; 10
    1272:	87 60       	ori	r24, 0x07	; 7
    1274:	8a b9       	out	0x0a, r24	; 10
    1276:	87 b1       	in	r24, 0x07	; 7
    1278:	8f 64       	ori	r24, 0x4F	; 79
    127a:	87 b9       	out	0x07, r24	; 7
    127c:	80 91 81 00 	lds	r24, 0x0081	; 0x800081 <__DATA_REGION_ORIGIN__+0x21>
    1280:	8d 60       	ori	r24, 0x0D	; 13
    1282:	80 93 81 00 	sts	0x0081, r24	; 0x800081 <__DATA_REGION_ORIGIN__+0x21>
    1286:	8d e3       	ldi	r24, 0x3D	; 61
    1288:	80 93 89 00 	sts	0x0089, r24	; 0x800089 <__DATA_REGION_ORIGIN__+0x29>
    128c:	88 e0       	ldi	r24, 0x08	; 8
    128e:	80 93 88 00 	sts	0x0088, r24	; 0x800088 <__DATA_REGION_ORIGIN__+0x28>
    1292:	80 91 6f 00 	lds	r24, 0x006F	; 0x80006f <__DATA_REGION_ORIGIN__+0xf>
    1296:	82 60       	ori	r24, 0x02	; 2
    1298:	80 93 6f 00 	sts	0x006F, r24	; 0x80006f <__DATA_REGION_ORIGIN__+0xf>
    129c:	78 94       	sei
    129e:	0e 94 41 04 	call	0x882	; 0x882 <nokia_lcd_init>
    12a2:	81 e0       	ldi	r24, 0x01	; 1
    12a4:	0e 94 99 04 	call	0x932	; 0x932 <nokia_lcd_power>
    12a8:	0e 94 84 04 	call	0x908	; 0x908 <nokia_lcd_clear>
    12ac:	80 91 28 01 	lds	r24, 0x0128	; 0x800128 <randomParam>
    12b0:	90 91 29 01 	lds	r25, 0x0129	; 0x800129 <randomParam+0x1>
    12b4:	01 96       	adiw	r24, 0x01	; 1
    12b6:	90 93 29 01 	sts	0x0129, r25	; 0x800129 <randomParam+0x1>
    12ba:	80 93 28 01 	sts	0x0128, r24	; 0x800128 <randomParam>
    12be:	f6 cf       	rjmp	.-20     	; 0x12ac <main+0x6a>

000012c0 <__udivmodqi4>:
    12c0:	99 1b       	sub	r25, r25
    12c2:	79 e0       	ldi	r23, 0x09	; 9
    12c4:	04 c0       	rjmp	.+8      	; 0x12ce <__udivmodqi4_ep>

000012c6 <__udivmodqi4_loop>:
    12c6:	99 1f       	adc	r25, r25
    12c8:	96 17       	cp	r25, r22
    12ca:	08 f0       	brcs	.+2      	; 0x12ce <__udivmodqi4_ep>
    12cc:	96 1b       	sub	r25, r22

000012ce <__udivmodqi4_ep>:
    12ce:	88 1f       	adc	r24, r24
    12d0:	7a 95       	dec	r23
    12d2:	c9 f7       	brne	.-14     	; 0x12c6 <__udivmodqi4_loop>
    12d4:	80 95       	com	r24
    12d6:	08 95       	ret

000012d8 <__divmodhi4>:
    12d8:	97 fb       	bst	r25, 7
    12da:	07 2e       	mov	r0, r23
    12dc:	16 f4       	brtc	.+4      	; 0x12e2 <__divmodhi4+0xa>
    12de:	00 94       	com	r0
    12e0:	07 d0       	rcall	.+14     	; 0x12f0 <__divmodhi4_neg1>
    12e2:	77 fd       	sbrc	r23, 7
    12e4:	09 d0       	rcall	.+18     	; 0x12f8 <__divmodhi4_neg2>
    12e6:	0e 94 c1 09 	call	0x1382	; 0x1382 <__udivmodhi4>
    12ea:	07 fc       	sbrc	r0, 7
    12ec:	05 d0       	rcall	.+10     	; 0x12f8 <__divmodhi4_neg2>
    12ee:	3e f4       	brtc	.+14     	; 0x12fe <__divmodhi4_exit>

000012f0 <__divmodhi4_neg1>:
    12f0:	90 95       	com	r25
    12f2:	81 95       	neg	r24
    12f4:	9f 4f       	sbci	r25, 0xFF	; 255
    12f6:	08 95       	ret

000012f8 <__divmodhi4_neg2>:
    12f8:	70 95       	com	r23
    12fa:	61 95       	neg	r22
    12fc:	7f 4f       	sbci	r23, 0xFF	; 255

000012fe <__divmodhi4_exit>:
    12fe:	08 95       	ret

00001300 <__udivmodsi4>:
    1300:	a1 e2       	ldi	r26, 0x21	; 33
    1302:	1a 2e       	mov	r1, r26
    1304:	aa 1b       	sub	r26, r26
    1306:	bb 1b       	sub	r27, r27
    1308:	fd 01       	movw	r30, r26
    130a:	0d c0       	rjmp	.+26     	; 0x1326 <__udivmodsi4_ep>

0000130c <__udivmodsi4_loop>:
    130c:	aa 1f       	adc	r26, r26
    130e:	bb 1f       	adc	r27, r27
    1310:	ee 1f       	adc	r30, r30
    1312:	ff 1f       	adc	r31, r31
    1314:	a2 17       	cp	r26, r18
    1316:	b3 07       	cpc	r27, r19
    1318:	e4 07       	cpc	r30, r20
    131a:	f5 07       	cpc	r31, r21
    131c:	20 f0       	brcs	.+8      	; 0x1326 <__udivmodsi4_ep>
    131e:	a2 1b       	sub	r26, r18
    1320:	b3 0b       	sbc	r27, r19
    1322:	e4 0b       	sbc	r30, r20
    1324:	f5 0b       	sbc	r31, r21

00001326 <__udivmodsi4_ep>:
    1326:	66 1f       	adc	r22, r22
    1328:	77 1f       	adc	r23, r23
    132a:	88 1f       	adc	r24, r24
    132c:	99 1f       	adc	r25, r25
    132e:	1a 94       	dec	r1
    1330:	69 f7       	brne	.-38     	; 0x130c <__udivmodsi4_loop>
    1332:	60 95       	com	r22
    1334:	70 95       	com	r23
    1336:	80 95       	com	r24
    1338:	90 95       	com	r25
    133a:	9b 01       	movw	r18, r22
    133c:	ac 01       	movw	r20, r24
    133e:	bd 01       	movw	r22, r26
    1340:	cf 01       	movw	r24, r30
    1342:	08 95       	ret

00001344 <__divmodsi4>:
    1344:	05 2e       	mov	r0, r21
    1346:	97 fb       	bst	r25, 7
    1348:	1e f4       	brtc	.+6      	; 0x1350 <__divmodsi4+0xc>
    134a:	00 94       	com	r0
    134c:	0e 94 b9 09 	call	0x1372	; 0x1372 <__negsi2>
    1350:	57 fd       	sbrc	r21, 7
    1352:	07 d0       	rcall	.+14     	; 0x1362 <__divmodsi4_neg2>
    1354:	0e 94 80 09 	call	0x1300	; 0x1300 <__udivmodsi4>
    1358:	07 fc       	sbrc	r0, 7
    135a:	03 d0       	rcall	.+6      	; 0x1362 <__divmodsi4_neg2>
    135c:	4e f4       	brtc	.+18     	; 0x1370 <__divmodsi4_exit>
    135e:	0c 94 b9 09 	jmp	0x1372	; 0x1372 <__negsi2>

00001362 <__divmodsi4_neg2>:
    1362:	50 95       	com	r21
    1364:	40 95       	com	r20
    1366:	30 95       	com	r19
    1368:	21 95       	neg	r18
    136a:	3f 4f       	sbci	r19, 0xFF	; 255
    136c:	4f 4f       	sbci	r20, 0xFF	; 255
    136e:	5f 4f       	sbci	r21, 0xFF	; 255

00001370 <__divmodsi4_exit>:
    1370:	08 95       	ret

00001372 <__negsi2>:
    1372:	90 95       	com	r25
    1374:	80 95       	com	r24
    1376:	70 95       	com	r23
    1378:	61 95       	neg	r22
    137a:	7f 4f       	sbci	r23, 0xFF	; 255
    137c:	8f 4f       	sbci	r24, 0xFF	; 255
    137e:	9f 4f       	sbci	r25, 0xFF	; 255
    1380:	08 95       	ret

00001382 <__udivmodhi4>:
    1382:	aa 1b       	sub	r26, r26
    1384:	bb 1b       	sub	r27, r27
    1386:	51 e1       	ldi	r21, 0x11	; 17
    1388:	07 c0       	rjmp	.+14     	; 0x1398 <__udivmodhi4_ep>

0000138a <__udivmodhi4_loop>:
    138a:	aa 1f       	adc	r26, r26
    138c:	bb 1f       	adc	r27, r27
    138e:	a6 17       	cp	r26, r22
    1390:	b7 07       	cpc	r27, r23
    1392:	10 f0       	brcs	.+4      	; 0x1398 <__udivmodhi4_ep>
    1394:	a6 1b       	sub	r26, r22
    1396:	b7 0b       	sbc	r27, r23

00001398 <__udivmodhi4_ep>:
    1398:	88 1f       	adc	r24, r24
    139a:	99 1f       	adc	r25, r25
    139c:	5a 95       	dec	r21
    139e:	a9 f7       	brne	.-22     	; 0x138a <__udivmodhi4_loop>
    13a0:	80 95       	com	r24
    13a2:	90 95       	com	r25
    13a4:	bc 01       	movw	r22, r24
    13a6:	cd 01       	movw	r24, r26
    13a8:	08 95       	ret

000013aa <__subsf3>:
    13aa:	50 58       	subi	r21, 0x80	; 128

000013ac <__addsf3>:
    13ac:	bb 27       	eor	r27, r27
    13ae:	aa 27       	eor	r26, r26
    13b0:	0e 94 ed 09 	call	0x13da	; 0x13da <__addsf3x>
    13b4:	0c 94 37 0b 	jmp	0x166e	; 0x166e <__fp_round>
    13b8:	0e 94 29 0b 	call	0x1652	; 0x1652 <__fp_pscA>
    13bc:	38 f0       	brcs	.+14     	; 0x13cc <__addsf3+0x20>
    13be:	0e 94 30 0b 	call	0x1660	; 0x1660 <__fp_pscB>
    13c2:	20 f0       	brcs	.+8      	; 0x13cc <__addsf3+0x20>
    13c4:	39 f4       	brne	.+14     	; 0x13d4 <__addsf3+0x28>
    13c6:	9f 3f       	cpi	r25, 0xFF	; 255
    13c8:	19 f4       	brne	.+6      	; 0x13d0 <__addsf3+0x24>
    13ca:	26 f4       	brtc	.+8      	; 0x13d4 <__addsf3+0x28>
    13cc:	0c 94 26 0b 	jmp	0x164c	; 0x164c <__fp_nan>
    13d0:	0e f4       	brtc	.+2      	; 0x13d4 <__addsf3+0x28>
    13d2:	e0 95       	com	r30
    13d4:	e7 fb       	bst	r30, 7
    13d6:	0c 94 20 0b 	jmp	0x1640	; 0x1640 <__fp_inf>

000013da <__addsf3x>:
    13da:	e9 2f       	mov	r30, r25
    13dc:	0e 94 48 0b 	call	0x1690	; 0x1690 <__fp_split3>
    13e0:	58 f3       	brcs	.-42     	; 0x13b8 <__addsf3+0xc>
    13e2:	ba 17       	cp	r27, r26
    13e4:	62 07       	cpc	r22, r18
    13e6:	73 07       	cpc	r23, r19
    13e8:	84 07       	cpc	r24, r20
    13ea:	95 07       	cpc	r25, r21
    13ec:	20 f0       	brcs	.+8      	; 0x13f6 <__addsf3x+0x1c>
    13ee:	79 f4       	brne	.+30     	; 0x140e <__addsf3x+0x34>
    13f0:	a6 f5       	brtc	.+104    	; 0x145a <__addsf3x+0x80>
    13f2:	0c 94 6a 0b 	jmp	0x16d4	; 0x16d4 <__fp_zero>
    13f6:	0e f4       	brtc	.+2      	; 0x13fa <__addsf3x+0x20>
    13f8:	e0 95       	com	r30
    13fa:	0b 2e       	mov	r0, r27
    13fc:	ba 2f       	mov	r27, r26
    13fe:	a0 2d       	mov	r26, r0
    1400:	0b 01       	movw	r0, r22
    1402:	b9 01       	movw	r22, r18
    1404:	90 01       	movw	r18, r0
    1406:	0c 01       	movw	r0, r24
    1408:	ca 01       	movw	r24, r20
    140a:	a0 01       	movw	r20, r0
    140c:	11 24       	eor	r1, r1
    140e:	ff 27       	eor	r31, r31
    1410:	59 1b       	sub	r21, r25
    1412:	99 f0       	breq	.+38     	; 0x143a <__addsf3x+0x60>
    1414:	59 3f       	cpi	r21, 0xF9	; 249
    1416:	50 f4       	brcc	.+20     	; 0x142c <__addsf3x+0x52>
    1418:	50 3e       	cpi	r21, 0xE0	; 224
    141a:	68 f1       	brcs	.+90     	; 0x1476 <__addsf3x+0x9c>
    141c:	1a 16       	cp	r1, r26
    141e:	f0 40       	sbci	r31, 0x00	; 0
    1420:	a2 2f       	mov	r26, r18
    1422:	23 2f       	mov	r18, r19
    1424:	34 2f       	mov	r19, r20
    1426:	44 27       	eor	r20, r20
    1428:	58 5f       	subi	r21, 0xF8	; 248
    142a:	f3 cf       	rjmp	.-26     	; 0x1412 <__addsf3x+0x38>
    142c:	46 95       	lsr	r20
    142e:	37 95       	ror	r19
    1430:	27 95       	ror	r18
    1432:	a7 95       	ror	r26
    1434:	f0 40       	sbci	r31, 0x00	; 0
    1436:	53 95       	inc	r21
    1438:	c9 f7       	brne	.-14     	; 0x142c <__addsf3x+0x52>
    143a:	7e f4       	brtc	.+30     	; 0x145a <__addsf3x+0x80>
    143c:	1f 16       	cp	r1, r31
    143e:	ba 0b       	sbc	r27, r26
    1440:	62 0b       	sbc	r22, r18
    1442:	73 0b       	sbc	r23, r19
    1444:	84 0b       	sbc	r24, r20
    1446:	ba f0       	brmi	.+46     	; 0x1476 <__addsf3x+0x9c>
    1448:	91 50       	subi	r25, 0x01	; 1
    144a:	a1 f0       	breq	.+40     	; 0x1474 <__addsf3x+0x9a>
    144c:	ff 0f       	add	r31, r31
    144e:	bb 1f       	adc	r27, r27
    1450:	66 1f       	adc	r22, r22
    1452:	77 1f       	adc	r23, r23
    1454:	88 1f       	adc	r24, r24
    1456:	c2 f7       	brpl	.-16     	; 0x1448 <__addsf3x+0x6e>
    1458:	0e c0       	rjmp	.+28     	; 0x1476 <__addsf3x+0x9c>
    145a:	ba 0f       	add	r27, r26
    145c:	62 1f       	adc	r22, r18
    145e:	73 1f       	adc	r23, r19
    1460:	84 1f       	adc	r24, r20
    1462:	48 f4       	brcc	.+18     	; 0x1476 <__addsf3x+0x9c>
    1464:	87 95       	ror	r24
    1466:	77 95       	ror	r23
    1468:	67 95       	ror	r22
    146a:	b7 95       	ror	r27
    146c:	f7 95       	ror	r31
    146e:	9e 3f       	cpi	r25, 0xFE	; 254
    1470:	08 f0       	brcs	.+2      	; 0x1474 <__addsf3x+0x9a>
    1472:	b0 cf       	rjmp	.-160    	; 0x13d4 <__addsf3+0x28>
    1474:	93 95       	inc	r25
    1476:	88 0f       	add	r24, r24
    1478:	08 f0       	brcs	.+2      	; 0x147c <__addsf3x+0xa2>
    147a:	99 27       	eor	r25, r25
    147c:	ee 0f       	add	r30, r30
    147e:	97 95       	ror	r25
    1480:	87 95       	ror	r24
    1482:	08 95       	ret

00001484 <__divsf3>:
    1484:	0e 94 56 0a 	call	0x14ac	; 0x14ac <__divsf3x>
    1488:	0c 94 37 0b 	jmp	0x166e	; 0x166e <__fp_round>
    148c:	0e 94 30 0b 	call	0x1660	; 0x1660 <__fp_pscB>
    1490:	58 f0       	brcs	.+22     	; 0x14a8 <__divsf3+0x24>
    1492:	0e 94 29 0b 	call	0x1652	; 0x1652 <__fp_pscA>
    1496:	40 f0       	brcs	.+16     	; 0x14a8 <__divsf3+0x24>
    1498:	29 f4       	brne	.+10     	; 0x14a4 <__divsf3+0x20>
    149a:	5f 3f       	cpi	r21, 0xFF	; 255
    149c:	29 f0       	breq	.+10     	; 0x14a8 <__divsf3+0x24>
    149e:	0c 94 20 0b 	jmp	0x1640	; 0x1640 <__fp_inf>
    14a2:	51 11       	cpse	r21, r1
    14a4:	0c 94 6b 0b 	jmp	0x16d6	; 0x16d6 <__fp_szero>
    14a8:	0c 94 26 0b 	jmp	0x164c	; 0x164c <__fp_nan>

000014ac <__divsf3x>:
    14ac:	0e 94 48 0b 	call	0x1690	; 0x1690 <__fp_split3>
    14b0:	68 f3       	brcs	.-38     	; 0x148c <__divsf3+0x8>

000014b2 <__divsf3_pse>:
    14b2:	99 23       	and	r25, r25
    14b4:	b1 f3       	breq	.-20     	; 0x14a2 <__divsf3+0x1e>
    14b6:	55 23       	and	r21, r21
    14b8:	91 f3       	breq	.-28     	; 0x149e <__divsf3+0x1a>
    14ba:	95 1b       	sub	r25, r21
    14bc:	55 0b       	sbc	r21, r21
    14be:	bb 27       	eor	r27, r27
    14c0:	aa 27       	eor	r26, r26
    14c2:	62 17       	cp	r22, r18
    14c4:	73 07       	cpc	r23, r19
    14c6:	84 07       	cpc	r24, r20
    14c8:	38 f0       	brcs	.+14     	; 0x14d8 <__divsf3_pse+0x26>
    14ca:	9f 5f       	subi	r25, 0xFF	; 255
    14cc:	5f 4f       	sbci	r21, 0xFF	; 255
    14ce:	22 0f       	add	r18, r18
    14d0:	33 1f       	adc	r19, r19
    14d2:	44 1f       	adc	r20, r20
    14d4:	aa 1f       	adc	r26, r26
    14d6:	a9 f3       	breq	.-22     	; 0x14c2 <__divsf3_pse+0x10>
    14d8:	35 d0       	rcall	.+106    	; 0x1544 <__divsf3_pse+0x92>
    14da:	0e 2e       	mov	r0, r30
    14dc:	3a f0       	brmi	.+14     	; 0x14ec <__divsf3_pse+0x3a>
    14de:	e0 e8       	ldi	r30, 0x80	; 128
    14e0:	32 d0       	rcall	.+100    	; 0x1546 <__divsf3_pse+0x94>
    14e2:	91 50       	subi	r25, 0x01	; 1
    14e4:	50 40       	sbci	r21, 0x00	; 0
    14e6:	e6 95       	lsr	r30
    14e8:	00 1c       	adc	r0, r0
    14ea:	ca f7       	brpl	.-14     	; 0x14de <__divsf3_pse+0x2c>
    14ec:	2b d0       	rcall	.+86     	; 0x1544 <__divsf3_pse+0x92>
    14ee:	fe 2f       	mov	r31, r30
    14f0:	29 d0       	rcall	.+82     	; 0x1544 <__divsf3_pse+0x92>
    14f2:	66 0f       	add	r22, r22
    14f4:	77 1f       	adc	r23, r23
    14f6:	88 1f       	adc	r24, r24
    14f8:	bb 1f       	adc	r27, r27
    14fa:	26 17       	cp	r18, r22
    14fc:	37 07       	cpc	r19, r23
    14fe:	48 07       	cpc	r20, r24
    1500:	ab 07       	cpc	r26, r27
    1502:	b0 e8       	ldi	r27, 0x80	; 128
    1504:	09 f0       	breq	.+2      	; 0x1508 <__divsf3_pse+0x56>
    1506:	bb 0b       	sbc	r27, r27
    1508:	80 2d       	mov	r24, r0
    150a:	bf 01       	movw	r22, r30
    150c:	ff 27       	eor	r31, r31
    150e:	93 58       	subi	r25, 0x83	; 131
    1510:	5f 4f       	sbci	r21, 0xFF	; 255
    1512:	3a f0       	brmi	.+14     	; 0x1522 <__divsf3_pse+0x70>
    1514:	9e 3f       	cpi	r25, 0xFE	; 254
    1516:	51 05       	cpc	r21, r1
    1518:	78 f0       	brcs	.+30     	; 0x1538 <__divsf3_pse+0x86>
    151a:	0c 94 20 0b 	jmp	0x1640	; 0x1640 <__fp_inf>
    151e:	0c 94 6b 0b 	jmp	0x16d6	; 0x16d6 <__fp_szero>
    1522:	5f 3f       	cpi	r21, 0xFF	; 255
    1524:	e4 f3       	brlt	.-8      	; 0x151e <__divsf3_pse+0x6c>
    1526:	98 3e       	cpi	r25, 0xE8	; 232
    1528:	d4 f3       	brlt	.-12     	; 0x151e <__divsf3_pse+0x6c>
    152a:	86 95       	lsr	r24
    152c:	77 95       	ror	r23
    152e:	67 95       	ror	r22
    1530:	b7 95       	ror	r27
    1532:	f7 95       	ror	r31
    1534:	9f 5f       	subi	r25, 0xFF	; 255
    1536:	c9 f7       	brne	.-14     	; 0x152a <__divsf3_pse+0x78>
    1538:	88 0f       	add	r24, r24
    153a:	91 1d       	adc	r25, r1
    153c:	96 95       	lsr	r25
    153e:	87 95       	ror	r24
    1540:	97 f9       	bld	r25, 7
    1542:	08 95       	ret
    1544:	e1 e0       	ldi	r30, 0x01	; 1
    1546:	66 0f       	add	r22, r22
    1548:	77 1f       	adc	r23, r23
    154a:	88 1f       	adc	r24, r24
    154c:	bb 1f       	adc	r27, r27
    154e:	62 17       	cp	r22, r18
    1550:	73 07       	cpc	r23, r19
    1552:	84 07       	cpc	r24, r20
    1554:	ba 07       	cpc	r27, r26
    1556:	20 f0       	brcs	.+8      	; 0x1560 <__divsf3_pse+0xae>
    1558:	62 1b       	sub	r22, r18
    155a:	73 0b       	sbc	r23, r19
    155c:	84 0b       	sbc	r24, r20
    155e:	ba 0b       	sbc	r27, r26
    1560:	ee 1f       	adc	r30, r30
    1562:	88 f7       	brcc	.-30     	; 0x1546 <__divsf3_pse+0x94>
    1564:	e0 95       	com	r30
    1566:	08 95       	ret

00001568 <__fixunssfsi>:
    1568:	0e 94 50 0b 	call	0x16a0	; 0x16a0 <__fp_splitA>
    156c:	88 f0       	brcs	.+34     	; 0x1590 <__fixunssfsi+0x28>
    156e:	9f 57       	subi	r25, 0x7F	; 127
    1570:	98 f0       	brcs	.+38     	; 0x1598 <__fixunssfsi+0x30>
    1572:	b9 2f       	mov	r27, r25
    1574:	99 27       	eor	r25, r25
    1576:	b7 51       	subi	r27, 0x17	; 23
    1578:	b0 f0       	brcs	.+44     	; 0x15a6 <__fixunssfsi+0x3e>
    157a:	e1 f0       	breq	.+56     	; 0x15b4 <__fixunssfsi+0x4c>
    157c:	66 0f       	add	r22, r22
    157e:	77 1f       	adc	r23, r23
    1580:	88 1f       	adc	r24, r24
    1582:	99 1f       	adc	r25, r25
    1584:	1a f0       	brmi	.+6      	; 0x158c <__fixunssfsi+0x24>
    1586:	ba 95       	dec	r27
    1588:	c9 f7       	brne	.-14     	; 0x157c <__fixunssfsi+0x14>
    158a:	14 c0       	rjmp	.+40     	; 0x15b4 <__fixunssfsi+0x4c>
    158c:	b1 30       	cpi	r27, 0x01	; 1
    158e:	91 f0       	breq	.+36     	; 0x15b4 <__fixunssfsi+0x4c>
    1590:	0e 94 6a 0b 	call	0x16d4	; 0x16d4 <__fp_zero>
    1594:	b1 e0       	ldi	r27, 0x01	; 1
    1596:	08 95       	ret
    1598:	0c 94 6a 0b 	jmp	0x16d4	; 0x16d4 <__fp_zero>
    159c:	67 2f       	mov	r22, r23
    159e:	78 2f       	mov	r23, r24
    15a0:	88 27       	eor	r24, r24
    15a2:	b8 5f       	subi	r27, 0xF8	; 248
    15a4:	39 f0       	breq	.+14     	; 0x15b4 <__fixunssfsi+0x4c>
    15a6:	b9 3f       	cpi	r27, 0xF9	; 249
    15a8:	cc f3       	brlt	.-14     	; 0x159c <__fixunssfsi+0x34>
    15aa:	86 95       	lsr	r24
    15ac:	77 95       	ror	r23
    15ae:	67 95       	ror	r22
    15b0:	b3 95       	inc	r27
    15b2:	d9 f7       	brne	.-10     	; 0x15aa <__fixunssfsi+0x42>
    15b4:	3e f4       	brtc	.+14     	; 0x15c4 <__fixunssfsi+0x5c>
    15b6:	90 95       	com	r25
    15b8:	80 95       	com	r24
    15ba:	70 95       	com	r23
    15bc:	61 95       	neg	r22
    15be:	7f 4f       	sbci	r23, 0xFF	; 255
    15c0:	8f 4f       	sbci	r24, 0xFF	; 255
    15c2:	9f 4f       	sbci	r25, 0xFF	; 255
    15c4:	08 95       	ret

000015c6 <__floatunsisf>:
    15c6:	e8 94       	clt
    15c8:	09 c0       	rjmp	.+18     	; 0x15dc <__floatsisf+0x12>

000015ca <__floatsisf>:
    15ca:	97 fb       	bst	r25, 7
    15cc:	3e f4       	brtc	.+14     	; 0x15dc <__floatsisf+0x12>
    15ce:	90 95       	com	r25
    15d0:	80 95       	com	r24
    15d2:	70 95       	com	r23
    15d4:	61 95       	neg	r22
    15d6:	7f 4f       	sbci	r23, 0xFF	; 255
    15d8:	8f 4f       	sbci	r24, 0xFF	; 255
    15da:	9f 4f       	sbci	r25, 0xFF	; 255
    15dc:	99 23       	and	r25, r25
    15de:	a9 f0       	breq	.+42     	; 0x160a <__floatsisf+0x40>
    15e0:	f9 2f       	mov	r31, r25
    15e2:	96 e9       	ldi	r25, 0x96	; 150
    15e4:	bb 27       	eor	r27, r27
    15e6:	93 95       	inc	r25
    15e8:	f6 95       	lsr	r31
    15ea:	87 95       	ror	r24
    15ec:	77 95       	ror	r23
    15ee:	67 95       	ror	r22
    15f0:	b7 95       	ror	r27
    15f2:	f1 11       	cpse	r31, r1
    15f4:	f8 cf       	rjmp	.-16     	; 0x15e6 <__floatsisf+0x1c>
    15f6:	fa f4       	brpl	.+62     	; 0x1636 <__floatsisf+0x6c>
    15f8:	bb 0f       	add	r27, r27
    15fa:	11 f4       	brne	.+4      	; 0x1600 <__floatsisf+0x36>
    15fc:	60 ff       	sbrs	r22, 0
    15fe:	1b c0       	rjmp	.+54     	; 0x1636 <__floatsisf+0x6c>
    1600:	6f 5f       	subi	r22, 0xFF	; 255
    1602:	7f 4f       	sbci	r23, 0xFF	; 255
    1604:	8f 4f       	sbci	r24, 0xFF	; 255
    1606:	9f 4f       	sbci	r25, 0xFF	; 255
    1608:	16 c0       	rjmp	.+44     	; 0x1636 <__floatsisf+0x6c>
    160a:	88 23       	and	r24, r24
    160c:	11 f0       	breq	.+4      	; 0x1612 <__floatsisf+0x48>
    160e:	96 e9       	ldi	r25, 0x96	; 150
    1610:	11 c0       	rjmp	.+34     	; 0x1634 <__floatsisf+0x6a>
    1612:	77 23       	and	r23, r23
    1614:	21 f0       	breq	.+8      	; 0x161e <__floatsisf+0x54>
    1616:	9e e8       	ldi	r25, 0x8E	; 142
    1618:	87 2f       	mov	r24, r23
    161a:	76 2f       	mov	r23, r22
    161c:	05 c0       	rjmp	.+10     	; 0x1628 <__floatsisf+0x5e>
    161e:	66 23       	and	r22, r22
    1620:	71 f0       	breq	.+28     	; 0x163e <__floatsisf+0x74>
    1622:	96 e8       	ldi	r25, 0x86	; 134
    1624:	86 2f       	mov	r24, r22
    1626:	70 e0       	ldi	r23, 0x00	; 0
    1628:	60 e0       	ldi	r22, 0x00	; 0
    162a:	2a f0       	brmi	.+10     	; 0x1636 <__floatsisf+0x6c>
    162c:	9a 95       	dec	r25
    162e:	66 0f       	add	r22, r22
    1630:	77 1f       	adc	r23, r23
    1632:	88 1f       	adc	r24, r24
    1634:	da f7       	brpl	.-10     	; 0x162c <__floatsisf+0x62>
    1636:	88 0f       	add	r24, r24
    1638:	96 95       	lsr	r25
    163a:	87 95       	ror	r24
    163c:	97 f9       	bld	r25, 7
    163e:	08 95       	ret

00001640 <__fp_inf>:
    1640:	97 f9       	bld	r25, 7
    1642:	9f 67       	ori	r25, 0x7F	; 127
    1644:	80 e8       	ldi	r24, 0x80	; 128
    1646:	70 e0       	ldi	r23, 0x00	; 0
    1648:	60 e0       	ldi	r22, 0x00	; 0
    164a:	08 95       	ret

0000164c <__fp_nan>:
    164c:	9f ef       	ldi	r25, 0xFF	; 255
    164e:	80 ec       	ldi	r24, 0xC0	; 192
    1650:	08 95       	ret

00001652 <__fp_pscA>:
    1652:	00 24       	eor	r0, r0
    1654:	0a 94       	dec	r0
    1656:	16 16       	cp	r1, r22
    1658:	17 06       	cpc	r1, r23
    165a:	18 06       	cpc	r1, r24
    165c:	09 06       	cpc	r0, r25
    165e:	08 95       	ret

00001660 <__fp_pscB>:
    1660:	00 24       	eor	r0, r0
    1662:	0a 94       	dec	r0
    1664:	12 16       	cp	r1, r18
    1666:	13 06       	cpc	r1, r19
    1668:	14 06       	cpc	r1, r20
    166a:	05 06       	cpc	r0, r21
    166c:	08 95       	ret

0000166e <__fp_round>:
    166e:	09 2e       	mov	r0, r25
    1670:	03 94       	inc	r0
    1672:	00 0c       	add	r0, r0
    1674:	11 f4       	brne	.+4      	; 0x167a <__fp_round+0xc>
    1676:	88 23       	and	r24, r24
    1678:	52 f0       	brmi	.+20     	; 0x168e <__fp_round+0x20>
    167a:	bb 0f       	add	r27, r27
    167c:	40 f4       	brcc	.+16     	; 0x168e <__fp_round+0x20>
    167e:	bf 2b       	or	r27, r31
    1680:	11 f4       	brne	.+4      	; 0x1686 <__fp_round+0x18>
    1682:	60 ff       	sbrs	r22, 0
    1684:	04 c0       	rjmp	.+8      	; 0x168e <__fp_round+0x20>
    1686:	6f 5f       	subi	r22, 0xFF	; 255
    1688:	7f 4f       	sbci	r23, 0xFF	; 255
    168a:	8f 4f       	sbci	r24, 0xFF	; 255
    168c:	9f 4f       	sbci	r25, 0xFF	; 255
    168e:	08 95       	ret

00001690 <__fp_split3>:
    1690:	57 fd       	sbrc	r21, 7
    1692:	90 58       	subi	r25, 0x80	; 128
    1694:	44 0f       	add	r20, r20
    1696:	55 1f       	adc	r21, r21
    1698:	59 f0       	breq	.+22     	; 0x16b0 <__fp_splitA+0x10>
    169a:	5f 3f       	cpi	r21, 0xFF	; 255
    169c:	71 f0       	breq	.+28     	; 0x16ba <__fp_splitA+0x1a>
    169e:	47 95       	ror	r20

000016a0 <__fp_splitA>:
    16a0:	88 0f       	add	r24, r24
    16a2:	97 fb       	bst	r25, 7
    16a4:	99 1f       	adc	r25, r25
    16a6:	61 f0       	breq	.+24     	; 0x16c0 <__fp_splitA+0x20>
    16a8:	9f 3f       	cpi	r25, 0xFF	; 255
    16aa:	79 f0       	breq	.+30     	; 0x16ca <__fp_splitA+0x2a>
    16ac:	87 95       	ror	r24
    16ae:	08 95       	ret
    16b0:	12 16       	cp	r1, r18
    16b2:	13 06       	cpc	r1, r19
    16b4:	14 06       	cpc	r1, r20
    16b6:	55 1f       	adc	r21, r21
    16b8:	f2 cf       	rjmp	.-28     	; 0x169e <__fp_split3+0xe>
    16ba:	46 95       	lsr	r20
    16bc:	f1 df       	rcall	.-30     	; 0x16a0 <__fp_splitA>
    16be:	08 c0       	rjmp	.+16     	; 0x16d0 <__fp_splitA+0x30>
    16c0:	16 16       	cp	r1, r22
    16c2:	17 06       	cpc	r1, r23
    16c4:	18 06       	cpc	r1, r24
    16c6:	99 1f       	adc	r25, r25
    16c8:	f1 cf       	rjmp	.-30     	; 0x16ac <__fp_splitA+0xc>
    16ca:	86 95       	lsr	r24
    16cc:	71 05       	cpc	r23, r1
    16ce:	61 05       	cpc	r22, r1
    16d0:	08 94       	sec
    16d2:	08 95       	ret

000016d4 <__fp_zero>:
    16d4:	e8 94       	clt

000016d6 <__fp_szero>:
    16d6:	bb 27       	eor	r27, r27
    16d8:	66 27       	eor	r22, r22
    16da:	77 27       	eor	r23, r23
    16dc:	cb 01       	movw	r24, r22
    16de:	97 f9       	bld	r25, 7
    16e0:	08 95       	ret

000016e2 <__gesf2>:
    16e2:	0e 94 e3 0b 	call	0x17c6	; 0x17c6 <__fp_cmp>
    16e6:	08 f4       	brcc	.+2      	; 0x16ea <__gesf2+0x8>
    16e8:	8f ef       	ldi	r24, 0xFF	; 255
    16ea:	08 95       	ret

000016ec <__mulsf3>:
    16ec:	0e 94 89 0b 	call	0x1712	; 0x1712 <__mulsf3x>
    16f0:	0c 94 37 0b 	jmp	0x166e	; 0x166e <__fp_round>
    16f4:	0e 94 29 0b 	call	0x1652	; 0x1652 <__fp_pscA>
    16f8:	38 f0       	brcs	.+14     	; 0x1708 <__mulsf3+0x1c>
    16fa:	0e 94 30 0b 	call	0x1660	; 0x1660 <__fp_pscB>
    16fe:	20 f0       	brcs	.+8      	; 0x1708 <__mulsf3+0x1c>
    1700:	95 23       	and	r25, r21
    1702:	11 f0       	breq	.+4      	; 0x1708 <__mulsf3+0x1c>
    1704:	0c 94 20 0b 	jmp	0x1640	; 0x1640 <__fp_inf>
    1708:	0c 94 26 0b 	jmp	0x164c	; 0x164c <__fp_nan>
    170c:	11 24       	eor	r1, r1
    170e:	0c 94 6b 0b 	jmp	0x16d6	; 0x16d6 <__fp_szero>

00001712 <__mulsf3x>:
    1712:	0e 94 48 0b 	call	0x1690	; 0x1690 <__fp_split3>
    1716:	70 f3       	brcs	.-36     	; 0x16f4 <__mulsf3+0x8>

00001718 <__mulsf3_pse>:
    1718:	95 9f       	mul	r25, r21
    171a:	c1 f3       	breq	.-16     	; 0x170c <__mulsf3+0x20>
    171c:	95 0f       	add	r25, r21
    171e:	50 e0       	ldi	r21, 0x00	; 0
    1720:	55 1f       	adc	r21, r21
    1722:	62 9f       	mul	r22, r18
    1724:	f0 01       	movw	r30, r0
    1726:	72 9f       	mul	r23, r18
    1728:	bb 27       	eor	r27, r27
    172a:	f0 0d       	add	r31, r0
    172c:	b1 1d       	adc	r27, r1
    172e:	63 9f       	mul	r22, r19
    1730:	aa 27       	eor	r26, r26
    1732:	f0 0d       	add	r31, r0
    1734:	b1 1d       	adc	r27, r1
    1736:	aa 1f       	adc	r26, r26
    1738:	64 9f       	mul	r22, r20
    173a:	66 27       	eor	r22, r22
    173c:	b0 0d       	add	r27, r0
    173e:	a1 1d       	adc	r26, r1
    1740:	66 1f       	adc	r22, r22
    1742:	82 9f       	mul	r24, r18
    1744:	22 27       	eor	r18, r18
    1746:	b0 0d       	add	r27, r0
    1748:	a1 1d       	adc	r26, r1
    174a:	62 1f       	adc	r22, r18
    174c:	73 9f       	mul	r23, r19
    174e:	b0 0d       	add	r27, r0
    1750:	a1 1d       	adc	r26, r1
    1752:	62 1f       	adc	r22, r18
    1754:	83 9f       	mul	r24, r19
    1756:	a0 0d       	add	r26, r0
    1758:	61 1d       	adc	r22, r1
    175a:	22 1f       	adc	r18, r18
    175c:	74 9f       	mul	r23, r20
    175e:	33 27       	eor	r19, r19
    1760:	a0 0d       	add	r26, r0
    1762:	61 1d       	adc	r22, r1
    1764:	23 1f       	adc	r18, r19
    1766:	84 9f       	mul	r24, r20
    1768:	60 0d       	add	r22, r0
    176a:	21 1d       	adc	r18, r1
    176c:	82 2f       	mov	r24, r18
    176e:	76 2f       	mov	r23, r22
    1770:	6a 2f       	mov	r22, r26
    1772:	11 24       	eor	r1, r1
    1774:	9f 57       	subi	r25, 0x7F	; 127
    1776:	50 40       	sbci	r21, 0x00	; 0
    1778:	9a f0       	brmi	.+38     	; 0x17a0 <__mulsf3_pse+0x88>
    177a:	f1 f0       	breq	.+60     	; 0x17b8 <__mulsf3_pse+0xa0>
    177c:	88 23       	and	r24, r24
    177e:	4a f0       	brmi	.+18     	; 0x1792 <__mulsf3_pse+0x7a>
    1780:	ee 0f       	add	r30, r30
    1782:	ff 1f       	adc	r31, r31
    1784:	bb 1f       	adc	r27, r27
    1786:	66 1f       	adc	r22, r22
    1788:	77 1f       	adc	r23, r23
    178a:	88 1f       	adc	r24, r24
    178c:	91 50       	subi	r25, 0x01	; 1
    178e:	50 40       	sbci	r21, 0x00	; 0
    1790:	a9 f7       	brne	.-22     	; 0x177c <__mulsf3_pse+0x64>
    1792:	9e 3f       	cpi	r25, 0xFE	; 254
    1794:	51 05       	cpc	r21, r1
    1796:	80 f0       	brcs	.+32     	; 0x17b8 <__mulsf3_pse+0xa0>
    1798:	0c 94 20 0b 	jmp	0x1640	; 0x1640 <__fp_inf>
    179c:	0c 94 6b 0b 	jmp	0x16d6	; 0x16d6 <__fp_szero>
    17a0:	5f 3f       	cpi	r21, 0xFF	; 255
    17a2:	e4 f3       	brlt	.-8      	; 0x179c <__mulsf3_pse+0x84>
    17a4:	98 3e       	cpi	r25, 0xE8	; 232
    17a6:	d4 f3       	brlt	.-12     	; 0x179c <__mulsf3_pse+0x84>
    17a8:	86 95       	lsr	r24
    17aa:	77 95       	ror	r23
    17ac:	67 95       	ror	r22
    17ae:	b7 95       	ror	r27
    17b0:	f7 95       	ror	r31
    17b2:	e7 95       	ror	r30
    17b4:	9f 5f       	subi	r25, 0xFF	; 255
    17b6:	c1 f7       	brne	.-16     	; 0x17a8 <__mulsf3_pse+0x90>
    17b8:	fe 2b       	or	r31, r30
    17ba:	88 0f       	add	r24, r24
    17bc:	91 1d       	adc	r25, r1
    17be:	96 95       	lsr	r25
    17c0:	87 95       	ror	r24
    17c2:	97 f9       	bld	r25, 7
    17c4:	08 95       	ret

000017c6 <__fp_cmp>:
    17c6:	99 0f       	add	r25, r25
    17c8:	00 08       	sbc	r0, r0
    17ca:	55 0f       	add	r21, r21
    17cc:	aa 0b       	sbc	r26, r26
    17ce:	e0 e8       	ldi	r30, 0x80	; 128
    17d0:	fe ef       	ldi	r31, 0xFE	; 254
    17d2:	16 16       	cp	r1, r22
    17d4:	17 06       	cpc	r1, r23
    17d6:	e8 07       	cpc	r30, r24
    17d8:	f9 07       	cpc	r31, r25
    17da:	c0 f0       	brcs	.+48     	; 0x180c <__fp_cmp+0x46>
    17dc:	12 16       	cp	r1, r18
    17de:	13 06       	cpc	r1, r19
    17e0:	e4 07       	cpc	r30, r20
    17e2:	f5 07       	cpc	r31, r21
    17e4:	98 f0       	brcs	.+38     	; 0x180c <__fp_cmp+0x46>
    17e6:	62 1b       	sub	r22, r18
    17e8:	73 0b       	sbc	r23, r19
    17ea:	84 0b       	sbc	r24, r20
    17ec:	95 0b       	sbc	r25, r21
    17ee:	39 f4       	brne	.+14     	; 0x17fe <__fp_cmp+0x38>
    17f0:	0a 26       	eor	r0, r26
    17f2:	61 f0       	breq	.+24     	; 0x180c <__fp_cmp+0x46>
    17f4:	23 2b       	or	r18, r19
    17f6:	24 2b       	or	r18, r20
    17f8:	25 2b       	or	r18, r21
    17fa:	21 f4       	brne	.+8      	; 0x1804 <__fp_cmp+0x3e>
    17fc:	08 95       	ret
    17fe:	0a 26       	eor	r0, r26
    1800:	09 f4       	brne	.+2      	; 0x1804 <__fp_cmp+0x3e>
    1802:	a1 40       	sbci	r26, 0x01	; 1
    1804:	a6 95       	lsr	r26
    1806:	8f ef       	ldi	r24, 0xFF	; 255
    1808:	81 1d       	adc	r24, r1
    180a:	81 1d       	adc	r24, r1
    180c:	08 95       	ret

0000180e <do_rand>:
    180e:	8f 92       	push	r8
    1810:	9f 92       	push	r9
    1812:	af 92       	push	r10
    1814:	bf 92       	push	r11
    1816:	cf 92       	push	r12
    1818:	df 92       	push	r13
    181a:	ef 92       	push	r14
    181c:	ff 92       	push	r15
    181e:	cf 93       	push	r28
    1820:	df 93       	push	r29
    1822:	ec 01       	movw	r28, r24
    1824:	68 81       	ld	r22, Y
    1826:	79 81       	ldd	r23, Y+1	; 0x01
    1828:	8a 81       	ldd	r24, Y+2	; 0x02
    182a:	9b 81       	ldd	r25, Y+3	; 0x03
    182c:	61 15       	cp	r22, r1
    182e:	71 05       	cpc	r23, r1
    1830:	81 05       	cpc	r24, r1
    1832:	91 05       	cpc	r25, r1
    1834:	21 f4       	brne	.+8      	; 0x183e <do_rand+0x30>
    1836:	64 e2       	ldi	r22, 0x24	; 36
    1838:	79 ed       	ldi	r23, 0xD9	; 217
    183a:	8b e5       	ldi	r24, 0x5B	; 91
    183c:	97 e0       	ldi	r25, 0x07	; 7
    183e:	2d e1       	ldi	r18, 0x1D	; 29
    1840:	33 ef       	ldi	r19, 0xF3	; 243
    1842:	41 e0       	ldi	r20, 0x01	; 1
    1844:	50 e0       	ldi	r21, 0x00	; 0
    1846:	0e 94 a2 09 	call	0x1344	; 0x1344 <__divmodsi4>
    184a:	49 01       	movw	r8, r18
    184c:	5a 01       	movw	r10, r20
    184e:	9b 01       	movw	r18, r22
    1850:	ac 01       	movw	r20, r24
    1852:	a7 ea       	ldi	r26, 0xA7	; 167
    1854:	b1 e4       	ldi	r27, 0x41	; 65
    1856:	0e 94 a1 0c 	call	0x1942	; 0x1942 <__muluhisi3>
    185a:	6b 01       	movw	r12, r22
    185c:	7c 01       	movw	r14, r24
    185e:	ac ee       	ldi	r26, 0xEC	; 236
    1860:	b4 ef       	ldi	r27, 0xF4	; 244
    1862:	a5 01       	movw	r20, r10
    1864:	94 01       	movw	r18, r8
    1866:	0e 94 af 0c 	call	0x195e	; 0x195e <__mulohisi3>
    186a:	dc 01       	movw	r26, r24
    186c:	cb 01       	movw	r24, r22
    186e:	8c 0d       	add	r24, r12
    1870:	9d 1d       	adc	r25, r13
    1872:	ae 1d       	adc	r26, r14
    1874:	bf 1d       	adc	r27, r15
    1876:	b7 ff       	sbrs	r27, 7
    1878:	03 c0       	rjmp	.+6      	; 0x1880 <do_rand+0x72>
    187a:	01 97       	sbiw	r24, 0x01	; 1
    187c:	a1 09       	sbc	r26, r1
    187e:	b0 48       	sbci	r27, 0x80	; 128
    1880:	88 83       	st	Y, r24
    1882:	99 83       	std	Y+1, r25	; 0x01
    1884:	aa 83       	std	Y+2, r26	; 0x02
    1886:	bb 83       	std	Y+3, r27	; 0x03
    1888:	9f 77       	andi	r25, 0x7F	; 127
    188a:	df 91       	pop	r29
    188c:	cf 91       	pop	r28
    188e:	ff 90       	pop	r15
    1890:	ef 90       	pop	r14
    1892:	df 90       	pop	r13
    1894:	cf 90       	pop	r12
    1896:	bf 90       	pop	r11
    1898:	af 90       	pop	r10
    189a:	9f 90       	pop	r9
    189c:	8f 90       	pop	r8
    189e:	08 95       	ret

000018a0 <rand_r>:
    18a0:	0e 94 07 0c 	call	0x180e	; 0x180e <do_rand>
    18a4:	08 95       	ret

000018a6 <rand>:
    18a6:	80 e0       	ldi	r24, 0x00	; 0
    18a8:	91 e0       	ldi	r25, 0x01	; 1
    18aa:	0e 94 07 0c 	call	0x180e	; 0x180e <do_rand>
    18ae:	08 95       	ret

000018b0 <srand>:
    18b0:	a0 e0       	ldi	r26, 0x00	; 0
    18b2:	b0 e0       	ldi	r27, 0x00	; 0
    18b4:	80 93 00 01 	sts	0x0100, r24	; 0x800100 <__data_start>
    18b8:	90 93 01 01 	sts	0x0101, r25	; 0x800101 <__data_start+0x1>
    18bc:	a0 93 02 01 	sts	0x0102, r26	; 0x800102 <__data_start+0x2>
    18c0:	b0 93 03 01 	sts	0x0103, r27	; 0x800103 <__data_start+0x3>
    18c4:	08 95       	ret

000018c6 <memcpy_P>:
    18c6:	fb 01       	movw	r30, r22
    18c8:	dc 01       	movw	r26, r24
    18ca:	02 c0       	rjmp	.+4      	; 0x18d0 <memcpy_P+0xa>
    18cc:	05 90       	lpm	r0, Z+
    18ce:	0d 92       	st	X+, r0
    18d0:	41 50       	subi	r20, 0x01	; 1
    18d2:	50 40       	sbci	r21, 0x00	; 0
    18d4:	d8 f7       	brcc	.-10     	; 0x18cc <memcpy_P+0x6>
    18d6:	08 95       	ret

000018d8 <__itoa_ncheck>:
    18d8:	bb 27       	eor	r27, r27
    18da:	4a 30       	cpi	r20, 0x0A	; 10
    18dc:	31 f4       	brne	.+12     	; 0x18ea <__itoa_ncheck+0x12>
    18de:	99 23       	and	r25, r25
    18e0:	22 f4       	brpl	.+8      	; 0x18ea <__itoa_ncheck+0x12>
    18e2:	bd e2       	ldi	r27, 0x2D	; 45
    18e4:	90 95       	com	r25
    18e6:	81 95       	neg	r24
    18e8:	9f 4f       	sbci	r25, 0xFF	; 255
    18ea:	0c 94 78 0c 	jmp	0x18f0	; 0x18f0 <__utoa_common>

000018ee <__utoa_ncheck>:
    18ee:	bb 27       	eor	r27, r27

000018f0 <__utoa_common>:
    18f0:	fb 01       	movw	r30, r22
    18f2:	55 27       	eor	r21, r21
    18f4:	aa 27       	eor	r26, r26
    18f6:	88 0f       	add	r24, r24
    18f8:	99 1f       	adc	r25, r25
    18fa:	aa 1f       	adc	r26, r26
    18fc:	a4 17       	cp	r26, r20
    18fe:	10 f0       	brcs	.+4      	; 0x1904 <__utoa_common+0x14>
    1900:	a4 1b       	sub	r26, r20
    1902:	83 95       	inc	r24
    1904:	50 51       	subi	r21, 0x10	; 16
    1906:	b9 f7       	brne	.-18     	; 0x18f6 <__utoa_common+0x6>
    1908:	a0 5d       	subi	r26, 0xD0	; 208
    190a:	aa 33       	cpi	r26, 0x3A	; 58
    190c:	08 f0       	brcs	.+2      	; 0x1910 <__utoa_common+0x20>
    190e:	a9 5d       	subi	r26, 0xD9	; 217
    1910:	a1 93       	st	Z+, r26
    1912:	00 97       	sbiw	r24, 0x00	; 0
    1914:	79 f7       	brne	.-34     	; 0x18f4 <__utoa_common+0x4>
    1916:	b1 11       	cpse	r27, r1
    1918:	b1 93       	st	Z+, r27
    191a:	11 92       	st	Z+, r1
    191c:	cb 01       	movw	r24, r22
    191e:	0c 94 91 0c 	jmp	0x1922	; 0x1922 <strrev>

00001922 <strrev>:
    1922:	dc 01       	movw	r26, r24
    1924:	fc 01       	movw	r30, r24
    1926:	67 2f       	mov	r22, r23
    1928:	71 91       	ld	r23, Z+
    192a:	77 23       	and	r23, r23
    192c:	e1 f7       	brne	.-8      	; 0x1926 <strrev+0x4>
    192e:	32 97       	sbiw	r30, 0x02	; 2
    1930:	04 c0       	rjmp	.+8      	; 0x193a <strrev+0x18>
    1932:	7c 91       	ld	r23, X
    1934:	6d 93       	st	X+, r22
    1936:	70 83       	st	Z, r23
    1938:	62 91       	ld	r22, -Z
    193a:	ae 17       	cp	r26, r30
    193c:	bf 07       	cpc	r27, r31
    193e:	c8 f3       	brcs	.-14     	; 0x1932 <strrev+0x10>
    1940:	08 95       	ret

00001942 <__muluhisi3>:
    1942:	0e 94 b4 0c 	call	0x1968	; 0x1968 <__umulhisi3>
    1946:	a5 9f       	mul	r26, r21
    1948:	90 0d       	add	r25, r0
    194a:	b4 9f       	mul	r27, r20
    194c:	90 0d       	add	r25, r0
    194e:	a4 9f       	mul	r26, r20
    1950:	80 0d       	add	r24, r0
    1952:	91 1d       	adc	r25, r1
    1954:	11 24       	eor	r1, r1
    1956:	08 95       	ret

00001958 <__mulshisi3>:
    1958:	b7 ff       	sbrs	r27, 7
    195a:	0c 94 a1 0c 	jmp	0x1942	; 0x1942 <__muluhisi3>

0000195e <__mulohisi3>:
    195e:	0e 94 a1 0c 	call	0x1942	; 0x1942 <__muluhisi3>
    1962:	82 1b       	sub	r24, r18
    1964:	93 0b       	sbc	r25, r19
    1966:	08 95       	ret

00001968 <__umulhisi3>:
    1968:	a2 9f       	mul	r26, r18
    196a:	b0 01       	movw	r22, r0
    196c:	b3 9f       	mul	r27, r19
    196e:	c0 01       	movw	r24, r0
    1970:	a3 9f       	mul	r26, r19
    1972:	70 0d       	add	r23, r0
    1974:	81 1d       	adc	r24, r1
    1976:	11 24       	eor	r1, r1
    1978:	91 1d       	adc	r25, r1
    197a:	b2 9f       	mul	r27, r18
    197c:	70 0d       	add	r23, r0
    197e:	81 1d       	adc	r24, r1
    1980:	11 24       	eor	r1, r1
    1982:	91 1d       	adc	r25, r1
    1984:	08 95       	ret

00001986 <_exit>:
    1986:	f8 94       	cli

00001988 <__stop_program>:
    1988:	ff cf       	rjmp	.-2      	; 0x1988 <__stop_program>
