
code.elf:     file format elf32-avr


Disassembly of section .text:

00000000 <__vectors>:
       0:	0c 94 24 01 	jmp	0x248	; 0x248 <__ctors_end>
       4:	0c 94 41 01 	jmp	0x282	; 0x282 <__bad_interrupt>
       8:	0c 94 41 01 	jmp	0x282	; 0x282 <__bad_interrupt>
       c:	0c 94 41 01 	jmp	0x282	; 0x282 <__bad_interrupt>
      10:	0c 94 41 01 	jmp	0x282	; 0x282 <__bad_interrupt>
      14:	0c 94 7b 04 	jmp	0x8f6	; 0x8f6 <__vector_5>
      18:	0c 94 41 01 	jmp	0x282	; 0x282 <__bad_interrupt>
      1c:	0c 94 41 01 	jmp	0x282	; 0x282 <__bad_interrupt>
      20:	0c 94 41 01 	jmp	0x282	; 0x282 <__bad_interrupt>
      24:	0c 94 41 01 	jmp	0x282	; 0x282 <__bad_interrupt>
      28:	0c 94 41 01 	jmp	0x282	; 0x282 <__bad_interrupt>
      2c:	0c 94 45 04 	jmp	0x88a	; 0x88a <__vector_11>
      30:	0c 94 41 01 	jmp	0x282	; 0x282 <__bad_interrupt>
      34:	0c 94 41 01 	jmp	0x282	; 0x282 <__bad_interrupt>
      38:	0c 94 41 01 	jmp	0x282	; 0x282 <__bad_interrupt>
      3c:	0c 94 41 01 	jmp	0x282	; 0x282 <__bad_interrupt>
      40:	0c 94 41 01 	jmp	0x282	; 0x282 <__bad_interrupt>
      44:	0c 94 41 01 	jmp	0x282	; 0x282 <__bad_interrupt>
      48:	0c 94 73 09 	jmp	0x12e6	; 0x12e6 <__vector_18>
      4c:	0c 94 41 01 	jmp	0x282	; 0x282 <__bad_interrupt>
      50:	0c 94 41 01 	jmp	0x282	; 0x282 <__bad_interrupt>
      54:	0c 94 41 01 	jmp	0x282	; 0x282 <__bad_interrupt>
      58:	0c 94 41 01 	jmp	0x282	; 0x282 <__bad_interrupt>
      5c:	0c 94 41 01 	jmp	0x282	; 0x282 <__bad_interrupt>
      60:	0c 94 41 01 	jmp	0x282	; 0x282 <__bad_interrupt>
      64:	0c 94 41 01 	jmp	0x282	; 0x282 <__bad_interrupt>

00000068 <CHARSET>:
      68:	00 00 00 00 00 00 00 5f 00 00 00 07 00 07 00 14     ......._........
      78:	7f 14 7f 14 24 2a 7f 2a 12 23 13 08 64 62 36 49     ....$*.*.#..db6I
      88:	55 22 50 00 05 03 00 00 00 1c 22 41 00 00 41 22     U"P......."A..A"
      98:	1c 00 14 08 3e 08 14 08 08 3e 08 08 00 50 30 00     ....>....>...P0.
      a8:	00 08 08 08 08 08 00 60 60 00 00 20 10 08 04 02     .......``.. ....
      b8:	3e 51 49 45 3e 00 42 7f 40 00 42 61 51 49 46 21     >QIE>.B.@.BaQIF!
      c8:	41 45 4b 31 18 14 12 7f 10 27 45 45 45 39 3c 4a     AEK1.....'EEE9<J
      d8:	49 49 30 01 71 09 05 03 36 49 49 49 36 06 49 49     II0.q...6III6.II
      e8:	29 1e 00 36 36 00 00 00 56 36 00 00 08 14 22 41     )..66...V6...."A
      f8:	00 14 14 14 14 14 00 41 22 14 08 02 01 51 09 06     .......A"....Q..
     108:	32 49 79 41 3e 7e 11 11 11 7e 7f 49 49 49 36 3e     2IyA>~...~.III6>
     118:	41 41 41 22 7f 41 41 22 1c 7f 49 49 49 41 7f 09     AAA".AA"..IIIA..
     128:	09 09 01 3e 41 49 49 7a 7f 08 08 08 7f 00 41 7f     ...>AIIz......A.
     138:	41 00 20 40 41 3f 01 7f 08 14 22 41 7f 40 40 40     A. @A?...."A.@@@
     148:	40 7f 02 0c 02 7f 7f 04 08 10 7f 3e 41 41 41 3e     @..........>AAA>
     158:	7f 09 09 09 06 3e 41 51 21 5e 7f 09 19 29 46 46     .....>AQ!^...)FF
     168:	49 49 49 31 01 01 7f 01 01 3f 40 40 40 3f 1f 20     III1.....?@@@?. 
     178:	40 20 1f 3f 40 38 40 3f 63 14 08 14 63 07 08 70     @ .?@8@?c...c..p
     188:	08 07 61 51 49 45 43 00 7f 41 41 00 02 04 08 10     ..aQIEC..AA.....
     198:	20 00 41 41 7f 00 04 02 01 02 04 40 40 40 40 40      .AA.......@@@@@
     1a8:	00 01 02 04 00 20 54 54 54 78 7f 48 44 44 38 38     ..... TTTx.HDD88
     1b8:	44 44 44 20 38 44 44 48 7f 38 54 54 54 18 08 7e     DDD 8DDH.8TTT..~
     1c8:	09 01 02 0c 52 52 52 3e 7f 08 04 04 78 00 44 7d     ....RRR>....x.D}
     1d8:	40 00 20 40 44 3d 00 7f 10 28 44 00 00 41 7f 40     @. @D=...(D..A.@
     1e8:	00 7c 04 18 04 78 7c 08 04 04 78 38 44 44 44 38     .|...x|...x8DDD8
     1f8:	7c 14 14 14 08 08 14 14 18 7c 7c 08 04 04 08 48     |........||....H
     208:	54 54 54 20 04 3f 44 40 20 3c 40 40 20 7c 1c 20     TTT .?D@ <@@ |. 
     218:	40 20 1c 3c 40 30 40 3c 44 28 10 28 44 0c 50 50     @ .<@0@<D(.(D.PP
     228:	50 3c 44 64 54 4c 44 00 08 36 41 00 00 00 7f 00     P<DdTLD..6A.....
     238:	00 00 41 36 08 00 10 08 08 10 08 00 00 00 00 00     ..A6............

00000248 <__ctors_end>:
     248:	11 24       	eor	r1, r1
     24a:	1f be       	out	0x3f, r1	; 63
     24c:	cf ef       	ldi	r28, 0xFF	; 255
     24e:	d8 e0       	ldi	r29, 0x08	; 8
     250:	de bf       	out	0x3e, r29	; 62
     252:	cd bf       	out	0x3d, r28	; 61

00000254 <__do_copy_data>:
     254:	11 e0       	ldi	r17, 0x01	; 1
     256:	a0 e0       	ldi	r26, 0x00	; 0
     258:	b1 e0       	ldi	r27, 0x01	; 1
     25a:	ea e2       	ldi	r30, 0x2A	; 42
     25c:	fb e1       	ldi	r31, 0x1B	; 27
     25e:	02 c0       	rjmp	.+4      	; 0x264 <__do_copy_data+0x10>
     260:	05 90       	lpm	r0, Z+
     262:	0d 92       	st	X+, r0
     264:	a8 32       	cpi	r26, 0x28	; 40
     266:	b1 07       	cpc	r27, r17
     268:	d9 f7       	brne	.-10     	; 0x260 <__do_copy_data+0xc>

0000026a <__do_clear_bss>:
     26a:	23 e0       	ldi	r18, 0x03	; 3
     26c:	a8 e2       	ldi	r26, 0x28	; 40
     26e:	b1 e0       	ldi	r27, 0x01	; 1
     270:	01 c0       	rjmp	.+2      	; 0x274 <.do_clear_bss_start>

00000272 <.do_clear_bss_loop>:
     272:	1d 92       	st	X+, r1

00000274 <.do_clear_bss_start>:
     274:	ac 3d       	cpi	r26, 0xDC	; 220
     276:	b2 07       	cpc	r27, r18
     278:	e1 f7       	brne	.-8      	; 0x272 <.do_clear_bss_loop>
     27a:	0e 94 f1 09 	call	0x13e2	; 0x13e2 <main>
     27e:	0c 94 93 0d 	jmp	0x1b26	; 0x1b26 <_exit>

00000282 <__bad_interrupt>:
     282:	0c 94 00 00 	jmp	0	; 0x0 <__vectors>

00000286 <sortSecret>:
     286:	af 92       	push	r10
     288:	bf 92       	push	r11
     28a:	cf 92       	push	r12
     28c:	df 92       	push	r13
     28e:	ef 92       	push	r14
     290:	ff 92       	push	r15
     292:	0f 93       	push	r16
     294:	1f 93       	push	r17
     296:	cf 93       	push	r28
     298:	df 93       	push	r29
     29a:	cd b7       	in	r28, 0x3d	; 61
     29c:	de b7       	in	r29, 0x3e	; 62
     29e:	64 97       	sbiw	r28, 0x14	; 20
     2a0:	0f b6       	in	r0, 0x3f	; 63
     2a2:	f8 94       	cli
     2a4:	de bf       	out	0x3e, r29	; 62
     2a6:	0f be       	out	0x3f, r0	; 63
     2a8:	cd bf       	out	0x3d, r28	; 61
     2aa:	80 91 2a 01 	lds	r24, 0x012A	; 0x80012a <randomParam>
     2ae:	90 91 2b 01 	lds	r25, 0x012B	; 0x80012b <randomParam+0x1>
     2b2:	0e 94 28 0d 	call	0x1a50	; 0x1a50 <srand>
     2b6:	ce 01       	movw	r24, r28
     2b8:	01 96       	adiw	r24, 0x01	; 1
     2ba:	7c 01       	movw	r14, r24
     2bc:	84 e1       	ldi	r24, 0x14	; 20
     2be:	d7 01       	movw	r26, r14
     2c0:	1d 92       	st	X+, r1
     2c2:	8a 95       	dec	r24
     2c4:	e9 f7       	brne	.-6      	; 0x2c0 <sortSecret+0x3a>
     2c6:	0e 94 23 0d 	call	0x1a46	; 0x1a46 <rand>
     2ca:	6a e0       	ldi	r22, 0x0A	; 10
     2cc:	70 e0       	ldi	r23, 0x00	; 0
     2ce:	0e 94 3c 0a 	call	0x1478	; 0x1478 <__divmodhi4>
     2d2:	0c e8       	ldi	r16, 0x8C	; 140
     2d4:	13 e0       	ldi	r17, 0x03	; 3
     2d6:	3a e0       	ldi	r19, 0x0A	; 10
     2d8:	a3 2e       	mov	r10, r19
     2da:	b1 2c       	mov	r11, r1
     2dc:	cc 24       	eor	r12, r12
     2de:	c3 94       	inc	r12
     2e0:	d1 2c       	mov	r13, r1
     2e2:	fc 01       	movw	r30, r24
     2e4:	ee 0f       	add	r30, r30
     2e6:	ff 1f       	adc	r31, r31
     2e8:	ee 0d       	add	r30, r14
     2ea:	ff 1d       	adc	r31, r15
     2ec:	20 81       	ld	r18, Z
     2ee:	31 81       	ldd	r19, Z+1	; 0x01
     2f0:	21 30       	cpi	r18, 0x01	; 1
     2f2:	31 05       	cpc	r19, r1
     2f4:	31 f4       	brne	.+12     	; 0x302 <sortSecret+0x7c>
     2f6:	0e 94 23 0d 	call	0x1a46	; 0x1a46 <rand>
     2fa:	b5 01       	movw	r22, r10
     2fc:	0e 94 3c 0a 	call	0x1478	; 0x1478 <__divmodhi4>
     300:	f0 cf       	rjmp	.-32     	; 0x2e2 <sortSecret+0x5c>
     302:	d8 01       	movw	r26, r16
     304:	8d 93       	st	X+, r24
     306:	9d 93       	st	X+, r25
     308:	8d 01       	movw	r16, r26
     30a:	d1 82       	std	Z+1, r13	; 0x01
     30c:	c0 82       	st	Z, r12
     30e:	b3 e0       	ldi	r27, 0x03	; 3
     310:	04 39       	cpi	r16, 0x94	; 148
     312:	1b 07       	cpc	r17, r27
     314:	31 f7       	brne	.-52     	; 0x2e2 <sortSecret+0x5c>
     316:	60 91 8c 03 	lds	r22, 0x038C	; 0x80038c <secret>
     31a:	70 91 8d 03 	lds	r23, 0x038D	; 0x80038d <secret+0x1>
     31e:	07 2e       	mov	r0, r23
     320:	00 0c       	add	r0, r0
     322:	88 0b       	sbc	r24, r24
     324:	99 0b       	sbc	r25, r25
     326:	0e 94 bc 07 	call	0xf78	; 0xf78 <printint>
     32a:	60 91 8e 03 	lds	r22, 0x038E	; 0x80038e <secret+0x2>
     32e:	70 91 8f 03 	lds	r23, 0x038F	; 0x80038f <secret+0x3>
     332:	07 2e       	mov	r0, r23
     334:	00 0c       	add	r0, r0
     336:	88 0b       	sbc	r24, r24
     338:	99 0b       	sbc	r25, r25
     33a:	0e 94 bc 07 	call	0xf78	; 0xf78 <printint>
     33e:	60 91 90 03 	lds	r22, 0x0390	; 0x800390 <secret+0x4>
     342:	70 91 91 03 	lds	r23, 0x0391	; 0x800391 <secret+0x5>
     346:	07 2e       	mov	r0, r23
     348:	00 0c       	add	r0, r0
     34a:	88 0b       	sbc	r24, r24
     34c:	99 0b       	sbc	r25, r25
     34e:	0e 94 bc 07 	call	0xf78	; 0xf78 <printint>
     352:	60 91 92 03 	lds	r22, 0x0392	; 0x800392 <secret+0x6>
     356:	70 91 93 03 	lds	r23, 0x0393	; 0x800393 <secret+0x7>
     35a:	07 2e       	mov	r0, r23
     35c:	00 0c       	add	r0, r0
     35e:	88 0b       	sbc	r24, r24
     360:	99 0b       	sbc	r25, r25
     362:	0e 94 bc 07 	call	0xf78	; 0xf78 <printint>
     366:	8c e0       	ldi	r24, 0x0C	; 12
     368:	91 e0       	ldi	r25, 0x01	; 1
     36a:	64 96       	adiw	r28, 0x14	; 20
     36c:	0f b6       	in	r0, 0x3f	; 63
     36e:	f8 94       	cli
     370:	de bf       	out	0x3e, r29	; 62
     372:	0f be       	out	0x3f, r0	; 63
     374:	cd bf       	out	0x3d, r28	; 61
     376:	df 91       	pop	r29
     378:	cf 91       	pop	r28
     37a:	1f 91       	pop	r17
     37c:	0f 91       	pop	r16
     37e:	ff 90       	pop	r15
     380:	ef 90       	pop	r14
     382:	df 90       	pop	r13
     384:	cf 90       	pop	r12
     386:	bf 90       	pop	r11
     388:	af 90       	pop	r10
     38a:	0c 94 a7 08 	jmp	0x114e	; 0x114e <print>

0000038e <nextDigit>:
     38e:	80 91 28 01 	lds	r24, 0x0128	; 0x800128 <__data_end>
     392:	90 91 29 01 	lds	r25, 0x0129	; 0x800129 <__data_end+0x1>
     396:	01 96       	adiw	r24, 0x01	; 1
     398:	84 30       	cpi	r24, 0x04	; 4
     39a:	91 05       	cpc	r25, r1
     39c:	2c f4       	brge	.+10     	; 0x3a8 <nextDigit+0x1a>
     39e:	90 93 29 01 	sts	0x0129, r25	; 0x800129 <__data_end+0x1>
     3a2:	80 93 28 01 	sts	0x0128, r24	; 0x800128 <__data_end>
     3a6:	08 95       	ret
     3a8:	10 92 29 01 	sts	0x0129, r1	; 0x800129 <__data_end+0x1>
     3ac:	10 92 28 01 	sts	0x0128, r1	; 0x800128 <__data_end>
     3b0:	08 95       	ret

000003b2 <nextValue>:
     3b2:	e0 91 28 01 	lds	r30, 0x0128	; 0x800128 <__data_end>
     3b6:	f0 91 29 01 	lds	r31, 0x0129	; 0x800129 <__data_end+0x1>
     3ba:	ee 0f       	add	r30, r30
     3bc:	ff 1f       	adc	r31, r31
     3be:	ec 57       	subi	r30, 0x7C	; 124
     3c0:	fc 4f       	sbci	r31, 0xFC	; 252
     3c2:	80 81       	ld	r24, Z
     3c4:	91 81       	ldd	r25, Z+1	; 0x01
     3c6:	01 96       	adiw	r24, 0x01	; 1
     3c8:	8a 30       	cpi	r24, 0x0A	; 10
     3ca:	91 05       	cpc	r25, r1
     3cc:	1c f4       	brge	.+6      	; 0x3d4 <nextValue+0x22>
     3ce:	91 83       	std	Z+1, r25	; 0x01
     3d0:	80 83       	st	Z, r24
     3d2:	08 95       	ret
     3d4:	11 82       	std	Z+1, r1	; 0x01
     3d6:	10 82       	st	Z, r1
     3d8:	08 95       	ret

000003da <prevValue>:
     3da:	e0 91 28 01 	lds	r30, 0x0128	; 0x800128 <__data_end>
     3de:	f0 91 29 01 	lds	r31, 0x0129	; 0x800129 <__data_end+0x1>
     3e2:	ee 0f       	add	r30, r30
     3e4:	ff 1f       	adc	r31, r31
     3e6:	ec 57       	subi	r30, 0x7C	; 124
     3e8:	fc 4f       	sbci	r31, 0xFC	; 252
     3ea:	80 81       	ld	r24, Z
     3ec:	91 81       	ldd	r25, Z+1	; 0x01
     3ee:	01 97       	sbiw	r24, 0x01	; 1
     3f0:	97 ff       	sbrs	r25, 7
     3f2:	02 c0       	rjmp	.+4      	; 0x3f8 <prevValue+0x1e>
     3f4:	89 e0       	ldi	r24, 0x09	; 9
     3f6:	90 e0       	ldi	r25, 0x00	; 0
     3f8:	91 83       	std	Z+1, r25	; 0x01
     3fa:	80 83       	st	Z, r24
     3fc:	08 95       	ret

000003fe <clearLeds>:
     3fe:	a8 e7       	ldi	r26, 0x78	; 120
     400:	b3 e0       	ldi	r27, 0x03	; 3
     402:	11 96       	adiw	r26, 0x01	; 1
     404:	1c 92       	st	X, r1
     406:	1e 92       	st	-X, r1
     408:	e4 e9       	ldi	r30, 0x94	; 148
     40a:	f3 e0       	ldi	r31, 0x03	; 3
     40c:	11 82       	std	Z+1, r1	; 0x01
     40e:	10 82       	st	Z, r1
     410:	13 96       	adiw	r26, 0x03	; 3
     412:	1c 92       	st	X, r1
     414:	1e 92       	st	-X, r1
     416:	12 97       	sbiw	r26, 0x02	; 2
     418:	13 82       	std	Z+3, r1	; 0x03
     41a:	12 82       	std	Z+2, r1	; 0x02
     41c:	15 96       	adiw	r26, 0x05	; 5
     41e:	1c 92       	st	X, r1
     420:	1e 92       	st	-X, r1
     422:	14 97       	sbiw	r26, 0x04	; 4
     424:	15 82       	std	Z+5, r1	; 0x05
     426:	14 82       	std	Z+4, r1	; 0x04
     428:	17 96       	adiw	r26, 0x07	; 7
     42a:	1c 92       	st	X, r1
     42c:	1e 92       	st	-X, r1
     42e:	16 97       	sbiw	r26, 0x06	; 6
     430:	17 82       	std	Z+7, r1	; 0x07
     432:	16 82       	std	Z+6, r1	; 0x06
     434:	88 b1       	in	r24, 0x08	; 8
     436:	80 7b       	andi	r24, 0xB0	; 176
     438:	88 b9       	out	0x08, r24	; 8
     43a:	8b b1       	in	r24, 0x0b	; 11
     43c:	88 7f       	andi	r24, 0xF8	; 248
     43e:	8b b9       	out	0x0b, r24	; 11
     440:	08 95       	ret

00000442 <start>:
     442:	0e 94 43 01 	call	0x286	; 0x286 <sortSecret>
     446:	8e e1       	ldi	r24, 0x1E	; 30
     448:	90 e0       	ldi	r25, 0x00	; 0
     44a:	90 93 81 03 	sts	0x0381, r25	; 0x800381 <time+0x1>
     44e:	80 93 80 03 	sts	0x0380, r24	; 0x800380 <time>
     452:	81 e0       	ldi	r24, 0x01	; 1
     454:	90 e0       	ldi	r25, 0x00	; 0
     456:	90 93 2d 01 	sts	0x012D, r25	; 0x80012d <isTimeRunning+0x1>
     45a:	80 93 2c 01 	sts	0x012C, r24	; 0x80012c <isTimeRunning>
     45e:	8a e0       	ldi	r24, 0x0A	; 10
     460:	90 e0       	ldi	r25, 0x00	; 0
     462:	90 93 83 03 	sts	0x0383, r25	; 0x800383 <lives+0x1>
     466:	80 93 82 03 	sts	0x0382, r24	; 0x800382 <lives>
     46a:	e4 e8       	ldi	r30, 0x84	; 132
     46c:	f3 e0       	ldi	r31, 0x03	; 3
     46e:	11 82       	std	Z+1, r1	; 0x01
     470:	10 82       	st	Z, r1
     472:	13 82       	std	Z+3, r1	; 0x03
     474:	12 82       	std	Z+2, r1	; 0x02
     476:	15 82       	std	Z+5, r1	; 0x05
     478:	14 82       	std	Z+4, r1	; 0x04
     47a:	17 82       	std	Z+7, r1	; 0x07
     47c:	16 82       	std	Z+6, r1	; 0x06
     47e:	0e 94 ff 01 	call	0x3fe	; 0x3fe <clearLeds>
     482:	10 92 29 01 	sts	0x0129, r1	; 0x800129 <__data_end+0x1>
     486:	10 92 28 01 	sts	0x0128, r1	; 0x800128 <__data_end>
     48a:	08 95       	ret

0000048c <lose>:
     48c:	10 92 2d 01 	sts	0x012D, r1	; 0x80012d <isTimeRunning+0x1>
     490:	10 92 2c 01 	sts	0x012C, r1	; 0x80012c <isTimeRunning>
     494:	0e 94 54 05 	call	0xaa8	; 0xaa8 <nokia_lcd_clear>
     498:	61 e0       	ldi	r22, 0x01	; 1
     49a:	8e e0       	ldi	r24, 0x0E	; 14
     49c:	91 e0       	ldi	r25, 0x01	; 1
     49e:	0e 94 39 06 	call	0xc72	; 0xc72 <nokia_lcd_write_string>
     4a2:	0e 94 4e 06 	call	0xc9c	; 0xc9c <nokia_lcd_render>
     4a6:	0e 94 ff 01 	call	0x3fe	; 0x3fe <clearLeds>
     4aa:	2f ef       	ldi	r18, 0xFF	; 255
     4ac:	8b e7       	ldi	r24, 0x7B	; 123
     4ae:	92 e9       	ldi	r25, 0x92	; 146
     4b0:	21 50       	subi	r18, 0x01	; 1
     4b2:	80 40       	sbci	r24, 0x00	; 0
     4b4:	90 40       	sbci	r25, 0x00	; 0
     4b6:	e1 f7       	brne	.-8      	; 0x4b0 <lose+0x24>
     4b8:	00 c0       	rjmp	.+0      	; 0x4ba <lose+0x2e>
     4ba:	00 00       	nop
     4bc:	0c 94 21 02 	jmp	0x442	; 0x442 <start>

000004c0 <blinkLeds>:
     4c0:	83 e0       	ldi	r24, 0x03	; 3
     4c2:	90 e0       	ldi	r25, 0x00	; 0
     4c4:	28 b1       	in	r18, 0x08	; 8
     4c6:	2f 64       	ori	r18, 0x4F	; 79
     4c8:	28 b9       	out	0x08, r18	; 8
     4ca:	2b b1       	in	r18, 0x0b	; 11
     4cc:	27 60       	ori	r18, 0x07	; 7
     4ce:	2b b9       	out	0x0b, r18	; 11
     4d0:	2f ef       	ldi	r18, 0xFF	; 255
     4d2:	39 e6       	ldi	r19, 0x69	; 105
     4d4:	48 e1       	ldi	r20, 0x18	; 24
     4d6:	21 50       	subi	r18, 0x01	; 1
     4d8:	30 40       	sbci	r19, 0x00	; 0
     4da:	40 40       	sbci	r20, 0x00	; 0
     4dc:	e1 f7       	brne	.-8      	; 0x4d6 <blinkLeds+0x16>
     4de:	00 c0       	rjmp	.+0      	; 0x4e0 <blinkLeds+0x20>
     4e0:	00 00       	nop
     4e2:	28 b1       	in	r18, 0x08	; 8
     4e4:	20 7b       	andi	r18, 0xB0	; 176
     4e6:	28 b9       	out	0x08, r18	; 8
     4e8:	2b b1       	in	r18, 0x0b	; 11
     4ea:	28 7f       	andi	r18, 0xF8	; 248
     4ec:	2b b9       	out	0x0b, r18	; 11
     4ee:	2f ef       	ldi	r18, 0xFF	; 255
     4f0:	39 e6       	ldi	r19, 0x69	; 105
     4f2:	48 e1       	ldi	r20, 0x18	; 24
     4f4:	21 50       	subi	r18, 0x01	; 1
     4f6:	30 40       	sbci	r19, 0x00	; 0
     4f8:	40 40       	sbci	r20, 0x00	; 0
     4fa:	e1 f7       	brne	.-8      	; 0x4f4 <blinkLeds+0x34>
     4fc:	00 c0       	rjmp	.+0      	; 0x4fe <blinkLeds+0x3e>
     4fe:	00 00       	nop
     500:	01 97       	sbiw	r24, 0x01	; 1
     502:	01 f7       	brne	.-64     	; 0x4c4 <blinkLeds+0x4>
     504:	08 95       	ret

00000506 <win>:
     506:	10 92 2d 01 	sts	0x012D, r1	; 0x80012d <isTimeRunning+0x1>
     50a:	10 92 2c 01 	sts	0x012C, r1	; 0x80012c <isTimeRunning>
     50e:	0e 94 54 05 	call	0xaa8	; 0xaa8 <nokia_lcd_clear>
     512:	61 e0       	ldi	r22, 0x01	; 1
     514:	88 e1       	ldi	r24, 0x18	; 24
     516:	91 e0       	ldi	r25, 0x01	; 1
     518:	0e 94 39 06 	call	0xc72	; 0xc72 <nokia_lcd_write_string>
     51c:	0e 94 4e 06 	call	0xc9c	; 0xc9c <nokia_lcd_render>
     520:	0e 94 ff 01 	call	0x3fe	; 0x3fe <clearLeds>
     524:	0e 94 60 02 	call	0x4c0	; 0x4c0 <blinkLeds>
     528:	0c 94 21 02 	jmp	0x442	; 0x442 <start>

0000052c <verifyCode>:
     52c:	4f 92       	push	r4
     52e:	5f 92       	push	r5
     530:	6f 92       	push	r6
     532:	7f 92       	push	r7
     534:	8f 92       	push	r8
     536:	9f 92       	push	r9
     538:	af 92       	push	r10
     53a:	bf 92       	push	r11
     53c:	cf 92       	push	r12
     53e:	df 92       	push	r13
     540:	ef 92       	push	r14
     542:	ff 92       	push	r15
     544:	0f 93       	push	r16
     546:	1f 93       	push	r17
     548:	cf 93       	push	r28
     54a:	df 93       	push	r29
     54c:	cd b7       	in	r28, 0x3d	; 61
     54e:	de b7       	in	r29, 0x3e	; 62
     550:	60 97       	sbiw	r28, 0x10	; 16
     552:	0f b6       	in	r0, 0x3f	; 63
     554:	f8 94       	cli
     556:	de bf       	out	0x3e, r29	; 62
     558:	0f be       	out	0x3f, r0	; 63
     55a:	cd bf       	out	0x3d, r28	; 61
     55c:	88 e0       	ldi	r24, 0x08	; 8
     55e:	8e 01       	movw	r16, r28
     560:	07 5f       	subi	r16, 0xF7	; 247
     562:	1f 4f       	sbci	r17, 0xFF	; 255
     564:	f8 01       	movw	r30, r16
     566:	28 2f       	mov	r18, r24
     568:	11 92       	st	Z+, r1
     56a:	2a 95       	dec	r18
     56c:	e9 f7       	brne	.-6      	; 0x568 <verifyCode+0x3c>
     56e:	fe 01       	movw	r30, r28
     570:	31 96       	adiw	r30, 0x01	; 1
     572:	4f 01       	movw	r8, r30
     574:	11 92       	st	Z+, r1
     576:	8a 95       	dec	r24
     578:	e9 f7       	brne	.-6      	; 0x574 <verifyCode+0x48>
     57a:	0e 94 ff 01 	call	0x3fe	; 0x3fe <clearLeds>
     57e:	ec e8       	ldi	r30, 0x8C	; 140
     580:	4e 2e       	mov	r4, r30
     582:	e3 e0       	ldi	r30, 0x03	; 3
     584:	5e 2e       	mov	r5, r30
     586:	58 01       	movw	r10, r16
     588:	94 01       	movw	r18, r8
     58a:	a8 01       	movw	r20, r16
     58c:	b2 01       	movw	r22, r4
     58e:	a4 e8       	ldi	r26, 0x84	; 132
     590:	b3 e0       	ldi	r27, 0x03	; 3
     592:	80 e0       	ldi	r24, 0x00	; 0
     594:	90 e0       	ldi	r25, 0x00	; 0
     596:	66 24       	eor	r6, r6
     598:	63 94       	inc	r6
     59a:	71 2c       	mov	r7, r1
     59c:	cd 90       	ld	r12, X+
     59e:	dd 90       	ld	r13, X+
     5a0:	fb 01       	movw	r30, r22
     5a2:	e1 90       	ld	r14, Z+
     5a4:	f1 90       	ld	r15, Z+
     5a6:	bf 01       	movw	r22, r30
     5a8:	ce 14       	cp	r12, r14
     5aa:	df 04       	cpc	r13, r15
     5ac:	39 f4       	brne	.+14     	; 0x5bc <verifyCode+0x90>
     5ae:	01 96       	adiw	r24, 0x01	; 1
     5b0:	fa 01       	movw	r30, r20
     5b2:	71 82       	std	Z+1, r7	; 0x01
     5b4:	60 82       	st	Z, r6
     5b6:	f9 01       	movw	r30, r18
     5b8:	71 82       	std	Z+1, r7	; 0x01
     5ba:	60 82       	st	Z, r6
     5bc:	4e 5f       	subi	r20, 0xFE	; 254
     5be:	5f 4f       	sbci	r21, 0xFF	; 255
     5c0:	2e 5f       	subi	r18, 0xFE	; 254
     5c2:	3f 4f       	sbci	r19, 0xFF	; 255
     5c4:	f3 e0       	ldi	r31, 0x03	; 3
     5c6:	ac 38       	cpi	r26, 0x8C	; 140
     5c8:	bf 07       	cpc	r27, r31
     5ca:	41 f7       	brne	.-48     	; 0x59c <verifyCode+0x70>
     5cc:	6e 01       	movw	r12, r28
     5ce:	21 e1       	ldi	r18, 0x11	; 17
     5d0:	c2 0e       	add	r12, r18
     5d2:	d1 1c       	adc	r13, r1
     5d4:	20 e0       	ldi	r18, 0x00	; 0
     5d6:	30 e0       	ldi	r19, 0x00	; 0
     5d8:	f5 01       	movw	r30, r10
     5da:	41 91       	ld	r20, Z+
     5dc:	51 91       	ld	r21, Z+
     5de:	5f 01       	movw	r10, r30
     5e0:	41 30       	cpi	r20, 0x01	; 1
     5e2:	51 05       	cpc	r21, r1
     5e4:	c1 f0       	breq	.+48     	; 0x616 <verifyCode+0xea>
     5e6:	44 e8       	ldi	r20, 0x84	; 132
     5e8:	53 e0       	ldi	r21, 0x03	; 3
     5ea:	d4 01       	movw	r26, r8
     5ec:	6d 91       	ld	r22, X+
     5ee:	7d 91       	ld	r23, X+
     5f0:	61 30       	cpi	r22, 0x01	; 1
     5f2:	71 05       	cpc	r23, r1
     5f4:	59 f0       	breq	.+22     	; 0x60c <verifyCode+0xe0>
     5f6:	fa 01       	movw	r30, r20
     5f8:	e0 80       	ld	r14, Z
     5fa:	f1 80       	ldd	r15, Z+1	; 0x01
     5fc:	f2 01       	movw	r30, r4
     5fe:	60 81       	ld	r22, Z
     600:	71 81       	ldd	r23, Z+1	; 0x01
     602:	e6 16       	cp	r14, r22
     604:	f7 06       	cpc	r15, r23
     606:	11 f4       	brne	.+4      	; 0x60c <verifyCode+0xe0>
     608:	2f 5f       	subi	r18, 0xFF	; 255
     60a:	3f 4f       	sbci	r19, 0xFF	; 255
     60c:	4e 5f       	subi	r20, 0xFE	; 254
     60e:	5f 4f       	sbci	r21, 0xFF	; 255
     610:	0a 17       	cp	r16, r26
     612:	1b 07       	cpc	r17, r27
     614:	59 f7       	brne	.-42     	; 0x5ec <verifyCode+0xc0>
     616:	f2 e0       	ldi	r31, 0x02	; 2
     618:	4f 0e       	add	r4, r31
     61a:	51 1c       	adc	r5, r1
     61c:	ca 14       	cp	r12, r10
     61e:	db 04       	cpc	r13, r11
     620:	d9 f6       	brne	.-74     	; 0x5d8 <verifyCode+0xac>
     622:	e8 e7       	ldi	r30, 0x78	; 120
     624:	f3 e0       	ldi	r31, 0x03	; 3
     626:	40 e0       	ldi	r20, 0x00	; 0
     628:	50 e0       	ldi	r21, 0x00	; 0
     62a:	61 e0       	ldi	r22, 0x01	; 1
     62c:	70 e0       	ldi	r23, 0x00	; 0
     62e:	48 17       	cp	r20, r24
     630:	59 07       	cpc	r21, r25
     632:	14 f4       	brge	.+4      	; 0x638 <verifyCode+0x10c>
     634:	71 83       	std	Z+1, r23	; 0x01
     636:	60 83       	st	Z, r22
     638:	4f 5f       	subi	r20, 0xFF	; 255
     63a:	5f 4f       	sbci	r21, 0xFF	; 255
     63c:	32 96       	adiw	r30, 0x02	; 2
     63e:	44 30       	cpi	r20, 0x04	; 4
     640:	51 05       	cpc	r21, r1
     642:	a9 f7       	brne	.-22     	; 0x62e <verifyCode+0x102>
     644:	e4 e9       	ldi	r30, 0x94	; 148
     646:	f3 e0       	ldi	r31, 0x03	; 3
     648:	40 e0       	ldi	r20, 0x00	; 0
     64a:	50 e0       	ldi	r21, 0x00	; 0
     64c:	61 e0       	ldi	r22, 0x01	; 1
     64e:	70 e0       	ldi	r23, 0x00	; 0
     650:	42 17       	cp	r20, r18
     652:	53 07       	cpc	r21, r19
     654:	14 f4       	brge	.+4      	; 0x65a <verifyCode+0x12e>
     656:	71 83       	std	Z+1, r23	; 0x01
     658:	60 83       	st	Z, r22
     65a:	4f 5f       	subi	r20, 0xFF	; 255
     65c:	5f 4f       	sbci	r21, 0xFF	; 255
     65e:	32 96       	adiw	r30, 0x02	; 2
     660:	44 30       	cpi	r20, 0x04	; 4
     662:	51 05       	cpc	r21, r1
     664:	a9 f7       	brne	.-22     	; 0x650 <verifyCode+0x124>
     666:	04 97       	sbiw	r24, 0x04	; 4
     668:	19 f4       	brne	.+6      	; 0x670 <verifyCode+0x144>
     66a:	0e 94 83 02 	call	0x506	; 0x506 <win>
     66e:	13 c0       	rjmp	.+38     	; 0x696 <verifyCode+0x16a>
     670:	80 91 82 03 	lds	r24, 0x0382	; 0x800382 <lives>
     674:	90 91 83 03 	lds	r25, 0x0383	; 0x800383 <lives+0x1>
     678:	01 97       	sbiw	r24, 0x01	; 1
     67a:	90 93 83 03 	sts	0x0383, r25	; 0x800383 <lives+0x1>
     67e:	80 93 82 03 	sts	0x0382, r24	; 0x800382 <lives>
     682:	89 2b       	or	r24, r25
     684:	11 f4       	brne	.+4      	; 0x68a <verifyCode+0x15e>
     686:	0e 94 46 02 	call	0x48c	; 0x48c <lose>
     68a:	8e e1       	ldi	r24, 0x1E	; 30
     68c:	90 e0       	ldi	r25, 0x00	; 0
     68e:	90 93 81 03 	sts	0x0381, r25	; 0x800381 <time+0x1>
     692:	80 93 80 03 	sts	0x0380, r24	; 0x800380 <time>
     696:	28 b1       	in	r18, 0x08	; 8
     698:	60 91 7a 03 	lds	r22, 0x037A	; 0x80037a <greenLeds+0x2>
     69c:	70 91 7b 03 	lds	r23, 0x037B	; 0x80037b <greenLeds+0x3>
     6a0:	66 0f       	add	r22, r22
     6a2:	77 1f       	adc	r23, r23
     6a4:	80 91 78 03 	lds	r24, 0x0378	; 0x800378 <greenLeds>
     6a8:	28 2b       	or	r18, r24
     6aa:	26 2b       	or	r18, r22
     6ac:	40 91 7c 03 	lds	r20, 0x037C	; 0x80037c <greenLeds+0x4>
     6b0:	50 91 7d 03 	lds	r21, 0x037D	; 0x80037d <greenLeds+0x5>
     6b4:	44 0f       	add	r20, r20
     6b6:	55 1f       	adc	r21, r21
     6b8:	44 0f       	add	r20, r20
     6ba:	55 1f       	adc	r21, r21
     6bc:	82 2f       	mov	r24, r18
     6be:	84 2b       	or	r24, r20
     6c0:	20 91 7e 03 	lds	r18, 0x037E	; 0x80037e <greenLeds+0x6>
     6c4:	30 91 7f 03 	lds	r19, 0x037F	; 0x80037f <greenLeds+0x7>
     6c8:	43 e0       	ldi	r20, 0x03	; 3
     6ca:	22 0f       	add	r18, r18
     6cc:	33 1f       	adc	r19, r19
     6ce:	4a 95       	dec	r20
     6d0:	e1 f7       	brne	.-8      	; 0x6ca <verifyCode+0x19e>
     6d2:	28 2b       	or	r18, r24
     6d4:	80 91 94 03 	lds	r24, 0x0394	; 0x800394 <yellowLeds>
     6d8:	90 91 95 03 	lds	r25, 0x0395	; 0x800395 <yellowLeds+0x1>
     6dc:	56 e0       	ldi	r21, 0x06	; 6
     6de:	88 0f       	add	r24, r24
     6e0:	99 1f       	adc	r25, r25
     6e2:	5a 95       	dec	r21
     6e4:	e1 f7       	brne	.-8      	; 0x6de <verifyCode+0x1b2>
     6e6:	82 2b       	or	r24, r18
     6e8:	88 b9       	out	0x08, r24	; 8
     6ea:	2b b1       	in	r18, 0x0b	; 11
     6ec:	80 91 96 03 	lds	r24, 0x0396	; 0x800396 <yellowLeds+0x2>
     6f0:	82 2b       	or	r24, r18
     6f2:	20 91 98 03 	lds	r18, 0x0398	; 0x800398 <yellowLeds+0x4>
     6f6:	30 91 99 03 	lds	r19, 0x0399	; 0x800399 <yellowLeds+0x5>
     6fa:	22 0f       	add	r18, r18
     6fc:	33 1f       	adc	r19, r19
     6fe:	28 2b       	or	r18, r24
     700:	80 91 9a 03 	lds	r24, 0x039A	; 0x80039a <yellowLeds+0x6>
     704:	90 91 9b 03 	lds	r25, 0x039B	; 0x80039b <yellowLeds+0x7>
     708:	88 0f       	add	r24, r24
     70a:	99 1f       	adc	r25, r25
     70c:	88 0f       	add	r24, r24
     70e:	99 1f       	adc	r25, r25
     710:	82 2b       	or	r24, r18
     712:	8b b9       	out	0x0b, r24	; 11
     714:	60 96       	adiw	r28, 0x10	; 16
     716:	0f b6       	in	r0, 0x3f	; 63
     718:	f8 94       	cli
     71a:	de bf       	out	0x3e, r29	; 62
     71c:	0f be       	out	0x3f, r0	; 63
     71e:	cd bf       	out	0x3d, r28	; 61
     720:	df 91       	pop	r29
     722:	cf 91       	pop	r28
     724:	1f 91       	pop	r17
     726:	0f 91       	pop	r16
     728:	ff 90       	pop	r15
     72a:	ef 90       	pop	r14
     72c:	df 90       	pop	r13
     72e:	cf 90       	pop	r12
     730:	bf 90       	pop	r11
     732:	af 90       	pop	r10
     734:	9f 90       	pop	r9
     736:	8f 90       	pop	r8
     738:	7f 90       	pop	r7
     73a:	6f 90       	pop	r6
     73c:	5f 90       	pop	r5
     73e:	4f 90       	pop	r4
     740:	08 95       	ret

00000742 <renderCode>:
     742:	1f 93       	push	r17
     744:	cf 93       	push	r28
     746:	df 93       	push	r29
     748:	cd b7       	in	r28, 0x3d	; 61
     74a:	de b7       	in	r29, 0x3e	; 62
     74c:	60 97       	sbiw	r28, 0x10	; 16
     74e:	0f b6       	in	r0, 0x3f	; 63
     750:	f8 94       	cli
     752:	de bf       	out	0x3e, r29	; 62
     754:	0f be       	out	0x3f, r0	; 63
     756:	cd bf       	out	0x3d, r28	; 61
     758:	60 e0       	ldi	r22, 0x00	; 0
     75a:	80 e0       	ldi	r24, 0x00	; 0
     75c:	0e 94 49 06 	call	0xc92	; 0xc92 <nokia_lcd_set_cursor>
     760:	88 e0       	ldi	r24, 0x08	; 8
     762:	e4 e0       	ldi	r30, 0x04	; 4
     764:	f1 e0       	ldi	r31, 0x01	; 1
     766:	de 01       	movw	r26, r28
     768:	19 96       	adiw	r26, 0x09	; 9
     76a:	01 90       	ld	r0, Z+
     76c:	0d 92       	st	X+, r0
     76e:	8a 95       	dec	r24
     770:	e1 f7       	brne	.-8      	; 0x76a <renderCode+0x28>
     772:	a4 e8       	ldi	r26, 0x84	; 132
     774:	b3 e0       	ldi	r27, 0x03	; 3
     776:	fe 01       	movw	r30, r28
     778:	39 96       	adiw	r30, 0x09	; 9
     77a:	ae 01       	movw	r20, r28
     77c:	4f 5e       	subi	r20, 0xEF	; 239
     77e:	5f 4f       	sbci	r21, 0xFF	; 255
     780:	cf 01       	movw	r24, r30
     782:	60 e2       	ldi	r22, 0x20	; 32
     784:	2d 91       	ld	r18, X+
     786:	3d 91       	ld	r19, X+
     788:	20 5d       	subi	r18, 0xD0	; 208
     78a:	20 83       	st	Z, r18
     78c:	10 e2       	ldi	r17, 0x20	; 32
     78e:	61 83       	std	Z+1, r22	; 0x01
     790:	32 96       	adiw	r30, 0x02	; 2
     792:	e4 17       	cp	r30, r20
     794:	f5 07       	cpc	r31, r21
     796:	b1 f7       	brne	.-20     	; 0x784 <renderCode+0x42>
     798:	18 8a       	std	Y+16, r1	; 0x10
     79a:	61 e0       	ldi	r22, 0x01	; 1
     79c:	0e 94 39 06 	call	0xc72	; 0xc72 <nokia_lcd_write_string>
     7a0:	6a e0       	ldi	r22, 0x0A	; 10
     7a2:	80 e0       	ldi	r24, 0x00	; 0
     7a4:	0e 94 49 06 	call	0xc92	; 0xc92 <nokia_lcd_set_cursor>
     7a8:	88 e0       	ldi	r24, 0x08	; 8
     7aa:	e4 e0       	ldi	r30, 0x04	; 4
     7ac:	f1 e0       	ldi	r31, 0x01	; 1
     7ae:	de 01       	movw	r26, r28
     7b0:	11 96       	adiw	r26, 0x01	; 1
     7b2:	01 90       	ld	r0, Z+
     7b4:	0d 92       	st	X+, r0
     7b6:	8a 95       	dec	r24
     7b8:	e1 f7       	brne	.-8      	; 0x7b2 <renderCode+0x70>
     7ba:	19 83       	std	Y+1, r17	; 0x01
     7bc:	1a 83       	std	Y+2, r17	; 0x02
     7be:	1b 83       	std	Y+3, r17	; 0x03
     7c0:	1c 83       	std	Y+4, r17	; 0x04
     7c2:	e0 91 28 01 	lds	r30, 0x0128	; 0x800128 <__data_end>
     7c6:	f0 91 29 01 	lds	r31, 0x0129	; 0x800129 <__data_end+0x1>
     7ca:	ee 0f       	add	r30, r30
     7cc:	ff 1f       	adc	r31, r31
     7ce:	81 e0       	ldi	r24, 0x01	; 1
     7d0:	90 e0       	ldi	r25, 0x00	; 0
     7d2:	8c 0f       	add	r24, r28
     7d4:	9d 1f       	adc	r25, r29
     7d6:	e8 0f       	add	r30, r24
     7d8:	f9 1f       	adc	r31, r25
     7da:	8a e2       	ldi	r24, 0x2A	; 42
     7dc:	80 83       	st	Z, r24
     7de:	18 86       	std	Y+8, r1	; 0x08
     7e0:	61 e0       	ldi	r22, 0x01	; 1
     7e2:	ce 01       	movw	r24, r28
     7e4:	01 96       	adiw	r24, 0x01	; 1
     7e6:	0e 94 39 06 	call	0xc72	; 0xc72 <nokia_lcd_write_string>
     7ea:	60 96       	adiw	r28, 0x10	; 16
     7ec:	0f b6       	in	r0, 0x3f	; 63
     7ee:	f8 94       	cli
     7f0:	de bf       	out	0x3e, r29	; 62
     7f2:	0f be       	out	0x3f, r0	; 63
     7f4:	cd bf       	out	0x3d, r28	; 61
     7f6:	df 91       	pop	r29
     7f8:	cf 91       	pop	r28
     7fa:	1f 91       	pop	r17
     7fc:	08 95       	ret

000007fe <renderTime>:
     7fe:	64 e1       	ldi	r22, 0x14	; 20
     800:	80 e0       	ldi	r24, 0x00	; 0
     802:	0e 94 49 06 	call	0xc92	; 0xc92 <nokia_lcd_set_cursor>
     806:	80 91 80 03 	lds	r24, 0x0380	; 0x800380 <time>
     80a:	90 91 81 03 	lds	r25, 0x0381	; 0x800381 <time+0x1>
     80e:	8a 30       	cpi	r24, 0x0A	; 10
     810:	91 05       	cpc	r25, r1
     812:	3c f4       	brge	.+14     	; 0x822 <renderTime+0x24>
     814:	90 e3       	ldi	r25, 0x30	; 48
     816:	90 93 72 03 	sts	0x0372, r25	; 0x800372 <stringTime>
     81a:	80 5d       	subi	r24, 0xD0	; 208
     81c:	80 93 73 03 	sts	0x0373, r24	; 0x800373 <stringTime+0x1>
     820:	05 c0       	rjmp	.+10     	; 0x82c <renderTime+0x2e>
     822:	4a e0       	ldi	r20, 0x0A	; 10
     824:	62 e7       	ldi	r22, 0x72	; 114
     826:	73 e0       	ldi	r23, 0x03	; 3
     828:	0e 94 3c 0d 	call	0x1a78	; 0x1a78 <__itoa_ncheck>
     82c:	10 92 74 03 	sts	0x0374, r1	; 0x800374 <stringTime+0x2>
     830:	61 e0       	ldi	r22, 0x01	; 1
     832:	82 e7       	ldi	r24, 0x72	; 114
     834:	93 e0       	ldi	r25, 0x03	; 3
     836:	0c 94 39 06 	jmp	0xc72	; 0xc72 <nokia_lcd_write_string>

0000083a <renderLives>:
     83a:	6e e1       	ldi	r22, 0x1E	; 30
     83c:	80 e0       	ldi	r24, 0x00	; 0
     83e:	0e 94 49 06 	call	0xc92	; 0xc92 <nokia_lcd_set_cursor>
     842:	80 91 82 03 	lds	r24, 0x0382	; 0x800382 <lives>
     846:	90 91 83 03 	lds	r25, 0x0383	; 0x800383 <lives+0x1>
     84a:	8a 30       	cpi	r24, 0x0A	; 10
     84c:	91 05       	cpc	r25, r1
     84e:	3c f4       	brge	.+14     	; 0x85e <renderLives+0x24>
     850:	90 e3       	ldi	r25, 0x30	; 48
     852:	90 93 75 03 	sts	0x0375, r25	; 0x800375 <stringLives>
     856:	80 5d       	subi	r24, 0xD0	; 208
     858:	80 93 76 03 	sts	0x0376, r24	; 0x800376 <stringLives+0x1>
     85c:	05 c0       	rjmp	.+10     	; 0x868 <renderLives+0x2e>
     85e:	4a e0       	ldi	r20, 0x0A	; 10
     860:	65 e7       	ldi	r22, 0x75	; 117
     862:	73 e0       	ldi	r23, 0x03	; 3
     864:	0e 94 3c 0d 	call	0x1a78	; 0x1a78 <__itoa_ncheck>
     868:	10 92 77 03 	sts	0x0377, r1	; 0x800377 <stringLives+0x2>
     86c:	61 e0       	ldi	r22, 0x01	; 1
     86e:	85 e7       	ldi	r24, 0x75	; 117
     870:	93 e0       	ldi	r25, 0x03	; 3
     872:	0c 94 39 06 	jmp	0xc72	; 0xc72 <nokia_lcd_write_string>

00000876 <render>:
     876:	0e 94 54 05 	call	0xaa8	; 0xaa8 <nokia_lcd_clear>
     87a:	0e 94 a1 03 	call	0x742	; 0x742 <renderCode>
     87e:	0e 94 ff 03 	call	0x7fe	; 0x7fe <renderTime>
     882:	0e 94 1d 04 	call	0x83a	; 0x83a <renderLives>
     886:	0c 94 4e 06 	jmp	0xc9c	; 0xc9c <nokia_lcd_render>

0000088a <__vector_11>:
     88a:	1f 92       	push	r1
     88c:	0f 92       	push	r0
     88e:	0f b6       	in	r0, 0x3f	; 63
     890:	0f 92       	push	r0
     892:	11 24       	eor	r1, r1
     894:	2f 93       	push	r18
     896:	3f 93       	push	r19
     898:	4f 93       	push	r20
     89a:	5f 93       	push	r21
     89c:	6f 93       	push	r22
     89e:	7f 93       	push	r23
     8a0:	8f 93       	push	r24
     8a2:	9f 93       	push	r25
     8a4:	af 93       	push	r26
     8a6:	bf 93       	push	r27
     8a8:	ef 93       	push	r30
     8aa:	ff 93       	push	r31
     8ac:	80 91 2c 01 	lds	r24, 0x012C	; 0x80012c <isTimeRunning>
     8b0:	90 91 2d 01 	lds	r25, 0x012D	; 0x80012d <isTimeRunning+0x1>
     8b4:	89 2b       	or	r24, r25
     8b6:	71 f0       	breq	.+28     	; 0x8d4 <__vector_11+0x4a>
     8b8:	0e 94 3b 04 	call	0x876	; 0x876 <render>
     8bc:	80 91 80 03 	lds	r24, 0x0380	; 0x800380 <time>
     8c0:	90 91 81 03 	lds	r25, 0x0381	; 0x800381 <time+0x1>
     8c4:	01 97       	sbiw	r24, 0x01	; 1
     8c6:	90 93 81 03 	sts	0x0381, r25	; 0x800381 <time+0x1>
     8ca:	80 93 80 03 	sts	0x0380, r24	; 0x800380 <time>
     8ce:	97 fd       	sbrc	r25, 7
     8d0:	0e 94 46 02 	call	0x48c	; 0x48c <lose>
     8d4:	ff 91       	pop	r31
     8d6:	ef 91       	pop	r30
     8d8:	bf 91       	pop	r27
     8da:	af 91       	pop	r26
     8dc:	9f 91       	pop	r25
     8de:	8f 91       	pop	r24
     8e0:	7f 91       	pop	r23
     8e2:	6f 91       	pop	r22
     8e4:	5f 91       	pop	r21
     8e6:	4f 91       	pop	r20
     8e8:	3f 91       	pop	r19
     8ea:	2f 91       	pop	r18
     8ec:	0f 90       	pop	r0
     8ee:	0f be       	out	0x3f, r0	; 63
     8f0:	0f 90       	pop	r0
     8f2:	1f 90       	pop	r1
     8f4:	18 95       	reti

000008f6 <__vector_5>:
     8f6:	1f 92       	push	r1
     8f8:	0f 92       	push	r0
     8fa:	0f b6       	in	r0, 0x3f	; 63
     8fc:	0f 92       	push	r0
     8fe:	11 24       	eor	r1, r1
     900:	2f 93       	push	r18
     902:	3f 93       	push	r19
     904:	4f 93       	push	r20
     906:	5f 93       	push	r21
     908:	6f 93       	push	r22
     90a:	7f 93       	push	r23
     90c:	8f 93       	push	r24
     90e:	9f 93       	push	r25
     910:	af 93       	push	r26
     912:	bf 93       	push	r27
     914:	ef 93       	push	r30
     916:	ff 93       	push	r31
     918:	4b 9b       	sbis	0x09, 3	; 9
     91a:	03 c0       	rjmp	.+6      	; 0x922 <__stack+0x23>
     91c:	4c 99       	sbic	0x09, 4	; 9
     91e:	0e c0       	rjmp	.+28     	; 0x93c <__stack+0x3d>
     920:	10 c0       	rjmp	.+32     	; 0x942 <__stack+0x43>
     922:	0e 94 d9 01 	call	0x3b2	; 0x3b2 <nextValue>
     926:	0e 94 3b 04 	call	0x876	; 0x876 <render>
     92a:	4b 99       	sbic	0x09, 3	; 9
     92c:	f7 cf       	rjmp	.-18     	; 0x91c <__stack+0x1d>
     92e:	8f e9       	ldi	r24, 0x9F	; 159
     930:	9f e0       	ldi	r25, 0x0F	; 15
     932:	01 97       	sbiw	r24, 0x01	; 1
     934:	f1 f7       	brne	.-4      	; 0x932 <__stack+0x33>
     936:	00 c0       	rjmp	.+0      	; 0x938 <__stack+0x39>
     938:	00 00       	nop
     93a:	f7 cf       	rjmp	.-18     	; 0x92a <__stack+0x2b>
     93c:	4d 99       	sbic	0x09, 5	; 9
     93e:	0e c0       	rjmp	.+28     	; 0x95c <__stack+0x5d>
     940:	10 c0       	rjmp	.+32     	; 0x962 <__stack+0x63>
     942:	0e 94 ed 01 	call	0x3da	; 0x3da <prevValue>
     946:	0e 94 3b 04 	call	0x876	; 0x876 <render>
     94a:	4c 99       	sbic	0x09, 4	; 9
     94c:	f7 cf       	rjmp	.-18     	; 0x93c <__stack+0x3d>
     94e:	8f e9       	ldi	r24, 0x9F	; 159
     950:	9f e0       	ldi	r25, 0x0F	; 15
     952:	01 97       	sbiw	r24, 0x01	; 1
     954:	f1 f7       	brne	.-4      	; 0x952 <__stack+0x53>
     956:	00 c0       	rjmp	.+0      	; 0x958 <__stack+0x59>
     958:	00 00       	nop
     95a:	f7 cf       	rjmp	.-18     	; 0x94a <__stack+0x4b>
     95c:	4e 99       	sbic	0x09, 6	; 9
     95e:	0e c0       	rjmp	.+28     	; 0x97c <__stack+0x7d>
     960:	10 c0       	rjmp	.+32     	; 0x982 <__stack+0x83>
     962:	0e 94 c7 01 	call	0x38e	; 0x38e <nextDigit>
     966:	0e 94 3b 04 	call	0x876	; 0x876 <render>
     96a:	4d 99       	sbic	0x09, 5	; 9
     96c:	f7 cf       	rjmp	.-18     	; 0x95c <__stack+0x5d>
     96e:	8f e9       	ldi	r24, 0x9F	; 159
     970:	9f e0       	ldi	r25, 0x0F	; 15
     972:	01 97       	sbiw	r24, 0x01	; 1
     974:	f1 f7       	brne	.-4      	; 0x972 <__stack+0x73>
     976:	00 c0       	rjmp	.+0      	; 0x978 <__stack+0x79>
     978:	00 00       	nop
     97a:	f7 cf       	rjmp	.-18     	; 0x96a <__stack+0x6b>
     97c:	4f 9b       	sbis	0x09, 7	; 9
     97e:	27 c0       	rjmp	.+78     	; 0x9ce <__stack+0xcf>
     980:	0f c0       	rjmp	.+30     	; 0x9a0 <__stack+0xa1>
     982:	0e 94 96 02 	call	0x52c	; 0x52c <verifyCode>
     986:	0e 94 1d 04 	call	0x83a	; 0x83a <renderLives>
     98a:	0e 94 4e 06 	call	0xc9c	; 0xc9c <nokia_lcd_render>
     98e:	4e 99       	sbic	0x09, 6	; 9
     990:	f5 cf       	rjmp	.-22     	; 0x97c <__stack+0x7d>
     992:	8f e9       	ldi	r24, 0x9F	; 159
     994:	9f e0       	ldi	r25, 0x0F	; 15
     996:	01 97       	sbiw	r24, 0x01	; 1
     998:	f1 f7       	brne	.-4      	; 0x996 <__stack+0x97>
     99a:	00 c0       	rjmp	.+0      	; 0x99c <__stack+0x9d>
     99c:	00 00       	nop
     99e:	f7 cf       	rjmp	.-18     	; 0x98e <__stack+0x8f>
     9a0:	8f e9       	ldi	r24, 0x9F	; 159
     9a2:	9f e0       	ldi	r25, 0x0F	; 15
     9a4:	01 97       	sbiw	r24, 0x01	; 1
     9a6:	f1 f7       	brne	.-4      	; 0x9a4 <__stack+0xa5>
     9a8:	00 c0       	rjmp	.+0      	; 0x9aa <__stack+0xab>
     9aa:	00 00       	nop
     9ac:	ff 91       	pop	r31
     9ae:	ef 91       	pop	r30
     9b0:	bf 91       	pop	r27
     9b2:	af 91       	pop	r26
     9b4:	9f 91       	pop	r25
     9b6:	8f 91       	pop	r24
     9b8:	7f 91       	pop	r23
     9ba:	6f 91       	pop	r22
     9bc:	5f 91       	pop	r21
     9be:	4f 91       	pop	r20
     9c0:	3f 91       	pop	r19
     9c2:	2f 91       	pop	r18
     9c4:	0f 90       	pop	r0
     9c6:	0f be       	out	0x3f, r0	; 63
     9c8:	0f 90       	pop	r0
     9ca:	1f 90       	pop	r1
     9cc:	18 95       	reti
     9ce:	0e 94 21 02 	call	0x442	; 0x442 <start>
     9d2:	4f 99       	sbic	0x09, 7	; 9
     9d4:	e5 cf       	rjmp	.-54     	; 0x9a0 <__stack+0xa1>
     9d6:	8f e9       	ldi	r24, 0x9F	; 159
     9d8:	9f e0       	ldi	r25, 0x0F	; 15
     9da:	01 97       	sbiw	r24, 0x01	; 1
     9dc:	f1 f7       	brne	.-4      	; 0x9da <__stack+0xdb>
     9de:	00 c0       	rjmp	.+0      	; 0x9e0 <__stack+0xe1>
     9e0:	00 00       	nop
     9e2:	f7 cf       	rjmp	.-18     	; 0x9d2 <__stack+0xd3>

000009e4 <write>:
     9e4:	29 98       	cbi	0x05, 1	; 5
     9e6:	66 23       	and	r22, r22
     9e8:	11 f0       	breq	.+4      	; 0x9ee <write+0xa>
     9ea:	2b 9a       	sbi	0x05, 3	; 5
     9ec:	01 c0       	rjmp	.+2      	; 0x9f0 <write+0xc>
     9ee:	2b 98       	cbi	0x05, 3	; 5
     9f0:	27 e0       	ldi	r18, 0x07	; 7
     9f2:	30 e0       	ldi	r19, 0x00	; 0
     9f4:	90 e0       	ldi	r25, 0x00	; 0
     9f6:	ac 01       	movw	r20, r24
     9f8:	02 2e       	mov	r0, r18
     9fa:	02 c0       	rjmp	.+4      	; 0xa00 <write+0x1c>
     9fc:	55 95       	asr	r21
     9fe:	47 95       	ror	r20
     a00:	0a 94       	dec	r0
     a02:	e2 f7       	brpl	.-8      	; 0x9fc <write+0x18>
     a04:	40 ff       	sbrs	r20, 0
     a06:	02 c0       	rjmp	.+4      	; 0xa0c <write+0x28>
     a08:	2c 9a       	sbi	0x05, 4	; 5
     a0a:	01 c0       	rjmp	.+2      	; 0xa0e <write+0x2a>
     a0c:	2c 98       	cbi	0x05, 4	; 5
     a0e:	2d 9a       	sbi	0x05, 5	; 5
     a10:	2d 98       	cbi	0x05, 5	; 5
     a12:	21 50       	subi	r18, 0x01	; 1
     a14:	31 09       	sbc	r19, r1
     a16:	78 f7       	brcc	.-34     	; 0x9f6 <write+0x12>
     a18:	29 9a       	sbi	0x05, 1	; 5
     a1a:	08 95       	ret

00000a1c <write_cmd>:
     a1c:	60 e0       	ldi	r22, 0x00	; 0
     a1e:	0c 94 f2 04 	jmp	0x9e4	; 0x9e4 <write>

00000a22 <nokia_lcd_init>:
     a22:	cf 93       	push	r28
     a24:	df 93       	push	r29
     a26:	21 9a       	sbi	0x04, 1	; 4
     a28:	22 9a       	sbi	0x04, 2	; 4
     a2a:	23 9a       	sbi	0x04, 3	; 4
     a2c:	24 9a       	sbi	0x04, 4	; 4
     a2e:	25 9a       	sbi	0x04, 5	; 4
     a30:	2a 9a       	sbi	0x05, 2	; 5
     a32:	29 9a       	sbi	0x05, 1	; 5
     a34:	8f e3       	ldi	r24, 0x3F	; 63
     a36:	9c e9       	ldi	r25, 0x9C	; 156
     a38:	01 97       	sbiw	r24, 0x01	; 1
     a3a:	f1 f7       	brne	.-4      	; 0xa38 <nokia_lcd_init+0x16>
     a3c:	00 c0       	rjmp	.+0      	; 0xa3e <nokia_lcd_init+0x1c>
     a3e:	00 00       	nop
     a40:	2a 98       	cbi	0x05, 2	; 5
     a42:	9f ef       	ldi	r25, 0xFF	; 255
     a44:	2a e6       	ldi	r18, 0x6A	; 106
     a46:	83 e0       	ldi	r24, 0x03	; 3
     a48:	91 50       	subi	r25, 0x01	; 1
     a4a:	20 40       	sbci	r18, 0x00	; 0
     a4c:	80 40       	sbci	r24, 0x00	; 0
     a4e:	e1 f7       	brne	.-8      	; 0xa48 <nokia_lcd_init+0x26>
     a50:	00 c0       	rjmp	.+0      	; 0xa52 <nokia_lcd_init+0x30>
     a52:	00 00       	nop
     a54:	2a 9a       	sbi	0x05, 2	; 5
     a56:	29 98       	cbi	0x05, 1	; 5
     a58:	81 e2       	ldi	r24, 0x21	; 33
     a5a:	0e 94 0e 05 	call	0xa1c	; 0xa1c <write_cmd>
     a5e:	83 e1       	ldi	r24, 0x13	; 19
     a60:	0e 94 0e 05 	call	0xa1c	; 0xa1c <write_cmd>
     a64:	86 e0       	ldi	r24, 0x06	; 6
     a66:	0e 94 0e 05 	call	0xa1c	; 0xa1c <write_cmd>
     a6a:	82 ec       	ldi	r24, 0xC2	; 194
     a6c:	0e 94 0e 05 	call	0xa1c	; 0xa1c <write_cmd>
     a70:	80 e2       	ldi	r24, 0x20	; 32
     a72:	0e 94 0e 05 	call	0xa1c	; 0xa1c <write_cmd>
     a76:	89 e0       	ldi	r24, 0x09	; 9
     a78:	0e 94 0e 05 	call	0xa1c	; 0xa1c <write_cmd>
     a7c:	80 e8       	ldi	r24, 0x80	; 128
     a7e:	0e 94 0e 05 	call	0xa1c	; 0xa1c <write_cmd>
     a82:	80 e4       	ldi	r24, 0x40	; 64
     a84:	0e 94 0e 05 	call	0xa1c	; 0xa1c <write_cmd>
     a88:	c8 ef       	ldi	r28, 0xF8	; 248
     a8a:	d1 e0       	ldi	r29, 0x01	; 1
     a8c:	61 e0       	ldi	r22, 0x01	; 1
     a8e:	80 e0       	ldi	r24, 0x00	; 0
     a90:	0e 94 f2 04 	call	0x9e4	; 0x9e4 <write>
     a94:	21 97       	sbiw	r28, 0x01	; 1
     a96:	d1 f7       	brne	.-12     	; 0xa8c <nokia_lcd_init+0x6a>
     a98:	88 e0       	ldi	r24, 0x08	; 8
     a9a:	0e 94 0e 05 	call	0xa1c	; 0xa1c <write_cmd>
     a9e:	8c e0       	ldi	r24, 0x0C	; 12
     aa0:	df 91       	pop	r29
     aa2:	cf 91       	pop	r28
     aa4:	0c 94 0e 05 	jmp	0xa1c	; 0xa1c <write_cmd>

00000aa8 <nokia_lcd_clear>:
     aa8:	80 e8       	ldi	r24, 0x80	; 128
     aaa:	0e 94 0e 05 	call	0xa1c	; 0xa1c <write_cmd>
     aae:	80 e4       	ldi	r24, 0x40	; 64
     ab0:	0e 94 0e 05 	call	0xa1c	; 0xa1c <write_cmd>
     ab4:	10 92 26 03 	sts	0x0326, r1	; 0x800326 <nokia_lcd+0x1f8>
     ab8:	10 92 27 03 	sts	0x0327, r1	; 0x800327 <nokia_lcd+0x1f9>
     abc:	88 ef       	ldi	r24, 0xF8	; 248
     abe:	91 e0       	ldi	r25, 0x01	; 1
     ac0:	ee e2       	ldi	r30, 0x2E	; 46
     ac2:	f1 e0       	ldi	r31, 0x01	; 1
     ac4:	df 01       	movw	r26, r30
     ac6:	9c 01       	movw	r18, r24
     ac8:	1d 92       	st	X+, r1
     aca:	21 50       	subi	r18, 0x01	; 1
     acc:	30 40       	sbci	r19, 0x00	; 0
     ace:	e1 f7       	brne	.-8      	; 0xac8 <nokia_lcd_clear+0x20>
     ad0:	08 95       	ret

00000ad2 <nokia_lcd_power>:
     ad2:	81 11       	cpse	r24, r1
     ad4:	02 c0       	rjmp	.+4      	; 0xada <nokia_lcd_power+0x8>
     ad6:	84 e2       	ldi	r24, 0x24	; 36
     ad8:	01 c0       	rjmp	.+2      	; 0xadc <nokia_lcd_power+0xa>
     ada:	80 e2       	ldi	r24, 0x20	; 32
     adc:	0c 94 0e 05 	jmp	0xa1c	; 0xa1c <write_cmd>

00000ae0 <nokia_lcd_set_pixel>:
     ae0:	96 2f       	mov	r25, r22
     ae2:	96 95       	lsr	r25
     ae4:	96 95       	lsr	r25
     ae6:	96 95       	lsr	r25
     ae8:	e8 2f       	mov	r30, r24
     aea:	f0 e0       	ldi	r31, 0x00	; 0
     aec:	84 e5       	ldi	r24, 0x54	; 84
     aee:	98 9f       	mul	r25, r24
     af0:	e0 0d       	add	r30, r0
     af2:	f1 1d       	adc	r31, r1
     af4:	11 24       	eor	r1, r1
     af6:	e2 5d       	subi	r30, 0xD2	; 210
     af8:	fe 4f       	sbci	r31, 0xFE	; 254
     afa:	67 70       	andi	r22, 0x07	; 7
     afc:	81 e0       	ldi	r24, 0x01	; 1
     afe:	90 e0       	ldi	r25, 0x00	; 0
     b00:	01 c0       	rjmp	.+2      	; 0xb04 <nokia_lcd_set_pixel+0x24>
     b02:	88 0f       	add	r24, r24
     b04:	6a 95       	dec	r22
     b06:	ea f7       	brpl	.-6      	; 0xb02 <nokia_lcd_set_pixel+0x22>
     b08:	44 23       	and	r20, r20
     b0a:	19 f0       	breq	.+6      	; 0xb12 <nokia_lcd_set_pixel+0x32>
     b0c:	90 81       	ld	r25, Z
     b0e:	89 2b       	or	r24, r25
     b10:	03 c0       	rjmp	.+6      	; 0xb18 <nokia_lcd_set_pixel+0x38>
     b12:	80 95       	com	r24
     b14:	90 81       	ld	r25, Z
     b16:	89 23       	and	r24, r25
     b18:	80 83       	st	Z, r24
     b1a:	08 95       	ret

00000b1c <nokia_lcd_write_char>:
     b1c:	8f 92       	push	r8
     b1e:	9f 92       	push	r9
     b20:	af 92       	push	r10
     b22:	bf 92       	push	r11
     b24:	df 92       	push	r13
     b26:	ef 92       	push	r14
     b28:	ff 92       	push	r15
     b2a:	0f 93       	push	r16
     b2c:	1f 93       	push	r17
     b2e:	cf 93       	push	r28
     b30:	df 93       	push	r29
     b32:	00 d0       	rcall	.+0      	; 0xb34 <nokia_lcd_write_char+0x18>
     b34:	00 d0       	rcall	.+0      	; 0xb36 <nokia_lcd_write_char+0x1a>
     b36:	1f 92       	push	r1
     b38:	cd b7       	in	r28, 0x3d	; 61
     b3a:	de b7       	in	r29, 0x3e	; 62
     b3c:	f6 2e       	mov	r15, r22
     b3e:	28 2f       	mov	r18, r24
     b40:	08 2e       	mov	r0, r24
     b42:	00 0c       	add	r0, r0
     b44:	33 0b       	sbc	r19, r19
     b46:	80 32       	cpi	r24, 0x20	; 32
     b48:	6c f0       	brlt	.+26     	; 0xb64 <nokia_lcd_write_char+0x48>
     b4a:	20 52       	subi	r18, 0x20	; 32
     b4c:	31 09       	sbc	r19, r1
     b4e:	85 e0       	ldi	r24, 0x05	; 5
     b50:	82 9f       	mul	r24, r18
     b52:	b0 01       	movw	r22, r0
     b54:	83 9f       	mul	r24, r19
     b56:	70 0d       	add	r23, r0
     b58:	11 24       	eor	r1, r1
     b5a:	68 59       	subi	r22, 0x98	; 152
     b5c:	7f 4f       	sbci	r23, 0xFF	; 255
     b5e:	45 e0       	ldi	r20, 0x05	; 5
     b60:	50 e0       	ldi	r21, 0x00	; 0
     b62:	0e c0       	rjmp	.+28     	; 0xb80 <nokia_lcd_write_char+0x64>
     b64:	22 0f       	add	r18, r18
     b66:	33 1f       	adc	r19, r19
     b68:	f9 01       	movw	r30, r18
     b6a:	e4 56       	subi	r30, 0x64	; 100
     b6c:	fc 4f       	sbci	r31, 0xFC	; 252
     b6e:	00 81       	ld	r16, Z
     b70:	11 81       	ldd	r17, Z+1	; 0x01
     b72:	01 15       	cp	r16, r1
     b74:	11 05       	cpc	r17, r1
     b76:	59 f4       	brne	.+22     	; 0xb8e <nokia_lcd_write_char+0x72>
     b78:	45 e0       	ldi	r20, 0x05	; 5
     b7a:	50 e0       	ldi	r21, 0x00	; 0
     b7c:	68 e6       	ldi	r22, 0x68	; 104
     b7e:	70 e0       	ldi	r23, 0x00	; 0
     b80:	ce 01       	movw	r24, r28
     b82:	01 96       	adiw	r24, 0x01	; 1
     b84:	0e 94 33 0d 	call	0x1a66	; 0x1a66 <memcpy_P>
     b88:	8e 01       	movw	r16, r28
     b8a:	0f 5f       	subi	r16, 0xFF	; 255
     b8c:	1f 4f       	sbci	r17, 0xFF	; 255
     b8e:	85 e0       	ldi	r24, 0x05	; 5
     b90:	f8 9e       	mul	r15, r24
     b92:	50 01       	movw	r10, r0
     b94:	11 24       	eor	r1, r1
     b96:	97 e0       	ldi	r25, 0x07	; 7
     b98:	f9 9e       	mul	r15, r25
     b9a:	40 01       	movw	r8, r0
     b9c:	11 24       	eor	r1, r1
     b9e:	d1 2c       	mov	r13, r1
     ba0:	8d 2d       	mov	r24, r13
     ba2:	90 e0       	ldi	r25, 0x00	; 0
     ba4:	8a 15       	cp	r24, r10
     ba6:	9b 05       	cpc	r25, r11
     ba8:	44 f5       	brge	.+80     	; 0xbfa <nokia_lcd_write_char+0xde>
     baa:	e1 2c       	mov	r14, r1
     bac:	8e 2d       	mov	r24, r14
     bae:	90 e0       	ldi	r25, 0x00	; 0
     bb0:	88 15       	cp	r24, r8
     bb2:	99 05       	cpc	r25, r9
     bb4:	04 f5       	brge	.+64     	; 0xbf6 <nokia_lcd_write_char+0xda>
     bb6:	8d 2d       	mov	r24, r13
     bb8:	6f 2d       	mov	r22, r15
     bba:	0e 94 30 0a 	call	0x1460	; 0x1460 <__udivmodqi4>
     bbe:	f8 01       	movw	r30, r16
     bc0:	e8 0f       	add	r30, r24
     bc2:	f1 1d       	adc	r31, r1
     bc4:	20 81       	ld	r18, Z
     bc6:	30 e0       	ldi	r19, 0x00	; 0
     bc8:	8e 2d       	mov	r24, r14
     bca:	0e 94 30 0a 	call	0x1460	; 0x1460 <__udivmodqi4>
     bce:	02 c0       	rjmp	.+4      	; 0xbd4 <nokia_lcd_write_char+0xb8>
     bd0:	35 95       	asr	r19
     bd2:	27 95       	ror	r18
     bd4:	8a 95       	dec	r24
     bd6:	e2 f7       	brpl	.-8      	; 0xbd0 <nokia_lcd_write_char+0xb4>
     bd8:	60 91 27 03 	lds	r22, 0x0327	; 0x800327 <nokia_lcd+0x1f9>
     bdc:	80 91 26 03 	lds	r24, 0x0326	; 0x800326 <nokia_lcd+0x1f8>
     be0:	6e 0d       	add	r22, r14
     be2:	20 ff       	sbrs	r18, 0
     be4:	02 c0       	rjmp	.+4      	; 0xbea <nokia_lcd_write_char+0xce>
     be6:	41 e0       	ldi	r20, 0x01	; 1
     be8:	01 c0       	rjmp	.+2      	; 0xbec <nokia_lcd_write_char+0xd0>
     bea:	40 e0       	ldi	r20, 0x00	; 0
     bec:	8d 0d       	add	r24, r13
     bee:	0e 94 70 05 	call	0xae0	; 0xae0 <nokia_lcd_set_pixel>
     bf2:	e3 94       	inc	r14
     bf4:	db cf       	rjmp	.-74     	; 0xbac <nokia_lcd_write_char+0x90>
     bf6:	d3 94       	inc	r13
     bf8:	d3 cf       	rjmp	.-90     	; 0xba0 <nokia_lcd_write_char+0x84>
     bfa:	80 91 26 03 	lds	r24, 0x0326	; 0x800326 <nokia_lcd+0x1f8>
     bfe:	91 e0       	ldi	r25, 0x01	; 1
     c00:	98 0f       	add	r25, r24
     c02:	8f 2d       	mov	r24, r15
     c04:	88 0f       	add	r24, r24
     c06:	88 0f       	add	r24, r24
     c08:	8f 0d       	add	r24, r15
     c0a:	89 0f       	add	r24, r25
     c0c:	84 35       	cpi	r24, 0x54	; 84
     c0e:	18 f4       	brcc	.+6      	; 0xc16 <nokia_lcd_write_char+0xfa>
     c10:	80 93 26 03 	sts	0x0326, r24	; 0x800326 <nokia_lcd+0x1f8>
     c14:	0b c0       	rjmp	.+22     	; 0xc2c <nokia_lcd_write_char+0x110>
     c16:	10 92 26 03 	sts	0x0326, r1	; 0x800326 <nokia_lcd+0x1f8>
     c1a:	80 91 27 03 	lds	r24, 0x0327	; 0x800327 <nokia_lcd+0x1f9>
     c1e:	8f 5f       	subi	r24, 0xFF	; 255
     c20:	97 e0       	ldi	r25, 0x07	; 7
     c22:	f9 9e       	mul	r15, r25
     c24:	80 0d       	add	r24, r0
     c26:	11 24       	eor	r1, r1
     c28:	80 93 27 03 	sts	0x0327, r24	; 0x800327 <nokia_lcd+0x1f9>
     c2c:	80 91 27 03 	lds	r24, 0x0327	; 0x800327 <nokia_lcd+0x1f9>
     c30:	80 33       	cpi	r24, 0x30	; 48
     c32:	20 f0       	brcs	.+8      	; 0xc3c <nokia_lcd_write_char+0x120>
     c34:	10 92 26 03 	sts	0x0326, r1	; 0x800326 <nokia_lcd+0x1f8>
     c38:	10 92 27 03 	sts	0x0327, r1	; 0x800327 <nokia_lcd+0x1f9>
     c3c:	0f 90       	pop	r0
     c3e:	0f 90       	pop	r0
     c40:	0f 90       	pop	r0
     c42:	0f 90       	pop	r0
     c44:	0f 90       	pop	r0
     c46:	df 91       	pop	r29
     c48:	cf 91       	pop	r28
     c4a:	1f 91       	pop	r17
     c4c:	0f 91       	pop	r16
     c4e:	ff 90       	pop	r15
     c50:	ef 90       	pop	r14
     c52:	df 90       	pop	r13
     c54:	bf 90       	pop	r11
     c56:	af 90       	pop	r10
     c58:	9f 90       	pop	r9
     c5a:	8f 90       	pop	r8
     c5c:	08 95       	ret

00000c5e <nokia_lcd_custom>:
     c5e:	80 32       	cpi	r24, 0x20	; 32
     c60:	3c f4       	brge	.+14     	; 0xc70 <nokia_lcd_custom+0x12>
     c62:	e8 2f       	mov	r30, r24
     c64:	ee 0f       	add	r30, r30
     c66:	ff 0b       	sbc	r31, r31
     c68:	e4 56       	subi	r30, 0x64	; 100
     c6a:	fc 4f       	sbci	r31, 0xFC	; 252
     c6c:	71 83       	std	Z+1, r23	; 0x01
     c6e:	60 83       	st	Z, r22
     c70:	08 95       	ret

00000c72 <nokia_lcd_write_string>:
     c72:	1f 93       	push	r17
     c74:	cf 93       	push	r28
     c76:	df 93       	push	r29
     c78:	16 2f       	mov	r17, r22
     c7a:	ec 01       	movw	r28, r24
     c7c:	89 91       	ld	r24, Y+
     c7e:	88 23       	and	r24, r24
     c80:	21 f0       	breq	.+8      	; 0xc8a <nokia_lcd_write_string+0x18>
     c82:	61 2f       	mov	r22, r17
     c84:	0e 94 8e 05 	call	0xb1c	; 0xb1c <nokia_lcd_write_char>
     c88:	f9 cf       	rjmp	.-14     	; 0xc7c <nokia_lcd_write_string+0xa>
     c8a:	df 91       	pop	r29
     c8c:	cf 91       	pop	r28
     c8e:	1f 91       	pop	r17
     c90:	08 95       	ret

00000c92 <nokia_lcd_set_cursor>:
     c92:	80 93 26 03 	sts	0x0326, r24	; 0x800326 <nokia_lcd+0x1f8>
     c96:	60 93 27 03 	sts	0x0327, r22	; 0x800327 <nokia_lcd+0x1f9>
     c9a:	08 95       	ret

00000c9c <nokia_lcd_render>:
     c9c:	cf 93       	push	r28
     c9e:	df 93       	push	r29
     ca0:	80 e8       	ldi	r24, 0x80	; 128
     ca2:	0e 94 0e 05 	call	0xa1c	; 0xa1c <write_cmd>
     ca6:	80 e4       	ldi	r24, 0x40	; 64
     ca8:	0e 94 0e 05 	call	0xa1c	; 0xa1c <write_cmd>
     cac:	ce e2       	ldi	r28, 0x2E	; 46
     cae:	d1 e0       	ldi	r29, 0x01	; 1
     cb0:	61 e0       	ldi	r22, 0x01	; 1
     cb2:	89 91       	ld	r24, Y+
     cb4:	0e 94 f2 04 	call	0x9e4	; 0x9e4 <write>
     cb8:	83 e0       	ldi	r24, 0x03	; 3
     cba:	c6 32       	cpi	r28, 0x26	; 38
     cbc:	d8 07       	cpc	r29, r24
     cbe:	c1 f7       	brne	.-16     	; 0xcb0 <nokia_lcd_render+0x14>
     cc0:	df 91       	pop	r29
     cc2:	cf 91       	pop	r28
     cc4:	08 95       	ret

00000cc6 <nokia_lcd_drawline>:
     cc6:	4f 92       	push	r4
     cc8:	5f 92       	push	r5
     cca:	6f 92       	push	r6
     ccc:	7f 92       	push	r7
     cce:	8f 92       	push	r8
     cd0:	9f 92       	push	r9
     cd2:	af 92       	push	r10
     cd4:	bf 92       	push	r11
     cd6:	cf 92       	push	r12
     cd8:	df 92       	push	r13
     cda:	ef 92       	push	r14
     cdc:	ff 92       	push	r15
     cde:	cf 93       	push	r28
     ce0:	df 93       	push	r29
     ce2:	cd b7       	in	r28, 0x3d	; 61
     ce4:	de b7       	in	r29, 0x3e	; 62
     ce6:	2e 97       	sbiw	r28, 0x0e	; 14
     ce8:	0f b6       	in	r0, 0x3f	; 63
     cea:	f8 94       	cli
     cec:	de bf       	out	0x3e, r29	; 62
     cee:	0f be       	out	0x3f, r0	; 63
     cf0:	cd bf       	out	0x3d, r28	; 61
     cf2:	8d 87       	std	Y+13, r24	; 0x0d
     cf4:	69 87       	std	Y+9, r22	; 0x09
     cf6:	f2 2e       	mov	r15, r18
     cf8:	64 2f       	mov	r22, r20
     cfa:	70 e0       	ldi	r23, 0x00	; 0
     cfc:	68 1b       	sub	r22, r24
     cfe:	71 09       	sbc	r23, r1
     d00:	07 2e       	mov	r0, r23
     d02:	00 0c       	add	r0, r0
     d04:	88 0b       	sbc	r24, r24
     d06:	99 0b       	sbc	r25, r25
     d08:	0e 94 b5 0b 	call	0x176a	; 0x176a <__floatsisf>
     d0c:	4b 01       	movw	r8, r22
     d0e:	5c 01       	movw	r10, r24
     d10:	6f 2d       	mov	r22, r15
     d12:	70 e0       	ldi	r23, 0x00	; 0
     d14:	29 85       	ldd	r18, Y+9	; 0x09
     d16:	62 1b       	sub	r22, r18
     d18:	71 09       	sbc	r23, r1
     d1a:	07 2e       	mov	r0, r23
     d1c:	00 0c       	add	r0, r0
     d1e:	88 0b       	sbc	r24, r24
     d20:	99 0b       	sbc	r25, r25
     d22:	0e 94 b5 0b 	call	0x176a	; 0x176a <__floatsisf>
     d26:	6b 01       	movw	r12, r22
     d28:	7c 01       	movw	r14, r24
     d2a:	24 01       	movw	r4, r8
     d2c:	35 01       	movw	r6, r10
     d2e:	e8 94       	clt
     d30:	77 f8       	bld	r7, 7
     d32:	dc 01       	movw	r26, r24
     d34:	cb 01       	movw	r24, r22
     d36:	bf 77       	andi	r27, 0x7F	; 127
     d38:	89 83       	std	Y+1, r24	; 0x01
     d3a:	9a 83       	std	Y+2, r25	; 0x02
     d3c:	ab 83       	std	Y+3, r26	; 0x03
     d3e:	bc 83       	std	Y+4, r27	; 0x04
     d40:	9c 01       	movw	r18, r24
     d42:	ad 01       	movw	r20, r26
     d44:	c3 01       	movw	r24, r6
     d46:	b2 01       	movw	r22, r4
     d48:	0e 94 41 0c 	call	0x1882	; 0x1882 <__gesf2>
     d4c:	87 ff       	sbrs	r24, 7
     d4e:	04 c0       	rjmp	.+8      	; 0xd58 <nokia_lcd_drawline+0x92>
     d50:	49 80       	ldd	r4, Y+1	; 0x01
     d52:	5a 80       	ldd	r5, Y+2	; 0x02
     d54:	6b 80       	ldd	r6, Y+3	; 0x03
     d56:	7c 80       	ldd	r7, Y+4	; 0x04
     d58:	a3 01       	movw	r20, r6
     d5a:	92 01       	movw	r18, r4
     d5c:	c5 01       	movw	r24, r10
     d5e:	b4 01       	movw	r22, r8
     d60:	0e 94 12 0b 	call	0x1624	; 0x1624 <__divsf3>
     d64:	69 83       	std	Y+1, r22	; 0x01
     d66:	7a 83       	std	Y+2, r23	; 0x02
     d68:	8b 83       	std	Y+3, r24	; 0x03
     d6a:	9c 83       	std	Y+4, r25	; 0x04
     d6c:	a3 01       	movw	r20, r6
     d6e:	92 01       	movw	r18, r4
     d70:	c7 01       	movw	r24, r14
     d72:	b6 01       	movw	r22, r12
     d74:	0e 94 12 0b 	call	0x1624	; 0x1624 <__divsf3>
     d78:	6d 83       	std	Y+5, r22	; 0x05
     d7a:	7e 83       	std	Y+6, r23	; 0x06
     d7c:	8f 83       	std	Y+7, r24	; 0x07
     d7e:	98 87       	std	Y+8, r25	; 0x08
     d80:	ad 85       	ldd	r26, Y+13	; 0x0d
     d82:	6a 2f       	mov	r22, r26
     d84:	70 e0       	ldi	r23, 0x00	; 0
     d86:	80 e0       	ldi	r24, 0x00	; 0
     d88:	90 e0       	ldi	r25, 0x00	; 0
     d8a:	0e 94 b3 0b 	call	0x1766	; 0x1766 <__floatunsisf>
     d8e:	6b 01       	movw	r12, r22
     d90:	7c 01       	movw	r14, r24
     d92:	b9 85       	ldd	r27, Y+9	; 0x09
     d94:	6b 2f       	mov	r22, r27
     d96:	70 e0       	ldi	r23, 0x00	; 0
     d98:	80 e0       	ldi	r24, 0x00	; 0
     d9a:	90 e0       	ldi	r25, 0x00	; 0
     d9c:	0e 94 b3 0b 	call	0x1766	; 0x1766 <__floatunsisf>
     da0:	4b 01       	movw	r8, r22
     da2:	5c 01       	movw	r10, r24
     da4:	21 e0       	ldi	r18, 0x01	; 1
     da6:	30 e0       	ldi	r19, 0x00	; 0
     da8:	3e 87       	std	Y+14, r19	; 0x0e
     daa:	2d 87       	std	Y+13, r18	; 0x0d
     dac:	ad 85       	ldd	r26, Y+13	; 0x0d
     dae:	be 85       	ldd	r27, Y+14	; 0x0e
     db0:	bd 01       	movw	r22, r26
     db2:	bb 0f       	add	r27, r27
     db4:	88 0b       	sbc	r24, r24
     db6:	99 0b       	sbc	r25, r25
     db8:	0e 94 b5 0b 	call	0x176a	; 0x176a <__floatsisf>
     dbc:	9b 01       	movw	r18, r22
     dbe:	ac 01       	movw	r20, r24
     dc0:	c3 01       	movw	r24, r6
     dc2:	b2 01       	movw	r22, r4
     dc4:	0e 94 41 0c 	call	0x1882	; 0x1882 <__gesf2>
     dc8:	87 fd       	sbrc	r24, 7
     dca:	2c c0       	rjmp	.+88     	; 0xe24 <nokia_lcd_drawline+0x15e>
     dcc:	c5 01       	movw	r24, r10
     dce:	b4 01       	movw	r22, r8
     dd0:	0e 94 84 0b 	call	0x1708	; 0x1708 <__fixunssfsi>
     dd4:	69 87       	std	Y+9, r22	; 0x09
     dd6:	7a 87       	std	Y+10, r23	; 0x0a
     dd8:	8b 87       	std	Y+11, r24	; 0x0b
     dda:	9c 87       	std	Y+12, r25	; 0x0c
     ddc:	c7 01       	movw	r24, r14
     dde:	b6 01       	movw	r22, r12
     de0:	0e 94 84 0b 	call	0x1708	; 0x1708 <__fixunssfsi>
     de4:	dc 01       	movw	r26, r24
     de6:	cb 01       	movw	r24, r22
     de8:	41 e0       	ldi	r20, 0x01	; 1
     dea:	69 85       	ldd	r22, Y+9	; 0x09
     dec:	0e 94 70 05 	call	0xae0	; 0xae0 <nokia_lcd_set_pixel>
     df0:	29 81       	ldd	r18, Y+1	; 0x01
     df2:	3a 81       	ldd	r19, Y+2	; 0x02
     df4:	4b 81       	ldd	r20, Y+3	; 0x03
     df6:	5c 81       	ldd	r21, Y+4	; 0x04
     df8:	c7 01       	movw	r24, r14
     dfa:	b6 01       	movw	r22, r12
     dfc:	0e 94 a6 0a 	call	0x154c	; 0x154c <__addsf3>
     e00:	6b 01       	movw	r12, r22
     e02:	7c 01       	movw	r14, r24
     e04:	2d 81       	ldd	r18, Y+5	; 0x05
     e06:	3e 81       	ldd	r19, Y+6	; 0x06
     e08:	4f 81       	ldd	r20, Y+7	; 0x07
     e0a:	58 85       	ldd	r21, Y+8	; 0x08
     e0c:	c5 01       	movw	r24, r10
     e0e:	b4 01       	movw	r22, r8
     e10:	0e 94 a6 0a 	call	0x154c	; 0x154c <__addsf3>
     e14:	4b 01       	movw	r8, r22
     e16:	5c 01       	movw	r10, r24
     e18:	8d 85       	ldd	r24, Y+13	; 0x0d
     e1a:	9e 85       	ldd	r25, Y+14	; 0x0e
     e1c:	01 96       	adiw	r24, 0x01	; 1
     e1e:	9e 87       	std	Y+14, r25	; 0x0e
     e20:	8d 87       	std	Y+13, r24	; 0x0d
     e22:	c4 cf       	rjmp	.-120    	; 0xdac <nokia_lcd_drawline+0xe6>
     e24:	2e 96       	adiw	r28, 0x0e	; 14
     e26:	0f b6       	in	r0, 0x3f	; 63
     e28:	f8 94       	cli
     e2a:	de bf       	out	0x3e, r29	; 62
     e2c:	0f be       	out	0x3f, r0	; 63
     e2e:	cd bf       	out	0x3d, r28	; 61
     e30:	df 91       	pop	r29
     e32:	cf 91       	pop	r28
     e34:	ff 90       	pop	r15
     e36:	ef 90       	pop	r14
     e38:	df 90       	pop	r13
     e3a:	cf 90       	pop	r12
     e3c:	bf 90       	pop	r11
     e3e:	af 90       	pop	r10
     e40:	9f 90       	pop	r9
     e42:	8f 90       	pop	r8
     e44:	7f 90       	pop	r7
     e46:	6f 90       	pop	r6
     e48:	5f 90       	pop	r5
     e4a:	4f 90       	pop	r4
     e4c:	08 95       	ret

00000e4e <nokia_lcd_drawrect>:
     e4e:	0f 93       	push	r16
     e50:	1f 93       	push	r17
     e52:	cf 93       	push	r28
     e54:	df 93       	push	r29
     e56:	c8 2f       	mov	r28, r24
     e58:	16 2f       	mov	r17, r22
     e5a:	04 2f       	mov	r16, r20
     e5c:	d2 2f       	mov	r29, r18
     e5e:	26 2f       	mov	r18, r22
     e60:	0e 94 63 06 	call	0xcc6	; 0xcc6 <nokia_lcd_drawline>
     e64:	2d 2f       	mov	r18, r29
     e66:	40 2f       	mov	r20, r16
     e68:	61 2f       	mov	r22, r17
     e6a:	80 2f       	mov	r24, r16
     e6c:	0e 94 63 06 	call	0xcc6	; 0xcc6 <nokia_lcd_drawline>
     e70:	2d 2f       	mov	r18, r29
     e72:	4c 2f       	mov	r20, r28
     e74:	6d 2f       	mov	r22, r29
     e76:	80 2f       	mov	r24, r16
     e78:	0e 94 63 06 	call	0xcc6	; 0xcc6 <nokia_lcd_drawline>
     e7c:	21 2f       	mov	r18, r17
     e7e:	4c 2f       	mov	r20, r28
     e80:	6d 2f       	mov	r22, r29
     e82:	8c 2f       	mov	r24, r28
     e84:	df 91       	pop	r29
     e86:	cf 91       	pop	r28
     e88:	1f 91       	pop	r17
     e8a:	0f 91       	pop	r16
     e8c:	0c 94 63 06 	jmp	0xcc6	; 0xcc6 <nokia_lcd_drawline>

00000e90 <nokia_lcd_drawcircle>:
     e90:	7f 92       	push	r7
     e92:	8f 92       	push	r8
     e94:	9f 92       	push	r9
     e96:	af 92       	push	r10
     e98:	bf 92       	push	r11
     e9a:	cf 92       	push	r12
     e9c:	df 92       	push	r13
     e9e:	ef 92       	push	r14
     ea0:	ff 92       	push	r15
     ea2:	0f 93       	push	r16
     ea4:	1f 93       	push	r17
     ea6:	cf 93       	push	r28
     ea8:	df 93       	push	r29
     eaa:	d8 2e       	mov	r13, r24
     eac:	c6 2e       	mov	r12, r22
     eae:	c4 2f       	mov	r28, r20
     eb0:	d0 e0       	ldi	r29, 0x00	; 0
     eb2:	e1 2c       	mov	r14, r1
     eb4:	f1 2c       	mov	r15, r1
     eb6:	00 e0       	ldi	r16, 0x00	; 0
     eb8:	10 e0       	ldi	r17, 0x00	; 0
     eba:	41 e0       	ldi	r20, 0x01	; 1
     ebc:	ac 2c       	mov	r10, r12
     ebe:	a0 0e       	add	r10, r16
     ec0:	6a 2d       	mov	r22, r10
     ec2:	bc 2e       	mov	r11, r28
     ec4:	bd 0c       	add	r11, r13
     ec6:	8b 2d       	mov	r24, r11
     ec8:	0e 94 70 05 	call	0xae0	; 0xae0 <nokia_lcd_set_pixel>
     ecc:	41 e0       	ldi	r20, 0x01	; 1
     ece:	8c 2e       	mov	r8, r28
     ed0:	8c 0c       	add	r8, r12
     ed2:	68 2d       	mov	r22, r8
     ed4:	9d 2c       	mov	r9, r13
     ed6:	90 0e       	add	r9, r16
     ed8:	89 2d       	mov	r24, r9
     eda:	0e 94 70 05 	call	0xae0	; 0xae0 <nokia_lcd_set_pixel>
     ede:	41 e0       	ldi	r20, 0x01	; 1
     ee0:	68 2d       	mov	r22, r8
     ee2:	7d 2c       	mov	r7, r13
     ee4:	70 1a       	sub	r7, r16
     ee6:	87 2d       	mov	r24, r7
     ee8:	0e 94 70 05 	call	0xae0	; 0xae0 <nokia_lcd_set_pixel>
     eec:	41 e0       	ldi	r20, 0x01	; 1
     eee:	6a 2d       	mov	r22, r10
     ef0:	8d 2c       	mov	r8, r13
     ef2:	8c 1a       	sub	r8, r28
     ef4:	88 2d       	mov	r24, r8
     ef6:	0e 94 70 05 	call	0xae0	; 0xae0 <nokia_lcd_set_pixel>
     efa:	41 e0       	ldi	r20, 0x01	; 1
     efc:	ac 2c       	mov	r10, r12
     efe:	a0 1a       	sub	r10, r16
     f00:	6a 2d       	mov	r22, r10
     f02:	88 2d       	mov	r24, r8
     f04:	0e 94 70 05 	call	0xae0	; 0xae0 <nokia_lcd_set_pixel>
     f08:	41 e0       	ldi	r20, 0x01	; 1
     f0a:	8c 2c       	mov	r8, r12
     f0c:	8c 1a       	sub	r8, r28
     f0e:	68 2d       	mov	r22, r8
     f10:	87 2d       	mov	r24, r7
     f12:	0e 94 70 05 	call	0xae0	; 0xae0 <nokia_lcd_set_pixel>
     f16:	41 e0       	ldi	r20, 0x01	; 1
     f18:	68 2d       	mov	r22, r8
     f1a:	89 2d       	mov	r24, r9
     f1c:	0e 94 70 05 	call	0xae0	; 0xae0 <nokia_lcd_set_pixel>
     f20:	41 e0       	ldi	r20, 0x01	; 1
     f22:	6a 2d       	mov	r22, r10
     f24:	8b 2d       	mov	r24, r11
     f26:	0e 94 70 05 	call	0xae0	; 0xae0 <nokia_lcd_set_pixel>
     f2a:	1e 14       	cp	r1, r14
     f2c:	1f 04       	cpc	r1, r15
     f2e:	5c f0       	brlt	.+22     	; 0xf46 <nokia_lcd_drawcircle+0xb6>
     f30:	0f 5f       	subi	r16, 0xFF	; 255
     f32:	1f 4f       	sbci	r17, 0xFF	; 255
     f34:	c8 01       	movw	r24, r16
     f36:	88 0f       	add	r24, r24
     f38:	99 1f       	adc	r25, r25
     f3a:	01 96       	adiw	r24, 0x01	; 1
     f3c:	e8 0e       	add	r14, r24
     f3e:	f9 1e       	adc	r15, r25
     f40:	1e 14       	cp	r1, r14
     f42:	1f 04       	cpc	r1, r15
     f44:	3c f4       	brge	.+14     	; 0xf54 <nokia_lcd_drawcircle+0xc4>
     f46:	21 97       	sbiw	r28, 0x01	; 1
     f48:	ce 01       	movw	r24, r28
     f4a:	88 0f       	add	r24, r24
     f4c:	99 1f       	adc	r25, r25
     f4e:	01 96       	adiw	r24, 0x01	; 1
     f50:	e8 1a       	sub	r14, r24
     f52:	f9 0a       	sbc	r15, r25
     f54:	c0 17       	cp	r28, r16
     f56:	d1 07       	cpc	r29, r17
     f58:	0c f0       	brlt	.+2      	; 0xf5c <nokia_lcd_drawcircle+0xcc>
     f5a:	af cf       	rjmp	.-162    	; 0xeba <nokia_lcd_drawcircle+0x2a>
     f5c:	df 91       	pop	r29
     f5e:	cf 91       	pop	r28
     f60:	1f 91       	pop	r17
     f62:	0f 91       	pop	r16
     f64:	ff 90       	pop	r15
     f66:	ef 90       	pop	r14
     f68:	df 90       	pop	r13
     f6a:	cf 90       	pop	r12
     f6c:	bf 90       	pop	r11
     f6e:	af 90       	pop	r10
     f70:	9f 90       	pop	r9
     f72:	8f 90       	pop	r8
     f74:	7f 90       	pop	r7
     f76:	08 95       	ret

00000f78 <printint>:
     f78:	4f 92       	push	r4
     f7a:	5f 92       	push	r5
     f7c:	6f 92       	push	r6
     f7e:	7f 92       	push	r7
     f80:	bf 92       	push	r11
     f82:	cf 92       	push	r12
     f84:	df 92       	push	r13
     f86:	ef 92       	push	r14
     f88:	ff 92       	push	r15
     f8a:	0f 93       	push	r16
     f8c:	1f 93       	push	r17
     f8e:	cf 93       	push	r28
     f90:	df 93       	push	r29
     f92:	cd b7       	in	r28, 0x3d	; 61
     f94:	de b7       	in	r29, 0x3e	; 62
     f96:	6e 97       	sbiw	r28, 0x1e	; 30
     f98:	0f b6       	in	r0, 0x3f	; 63
     f9a:	f8 94       	cli
     f9c:	de bf       	out	0x3e, r29	; 62
     f9e:	0f be       	out	0x3f, r0	; 63
     fa0:	cd bf       	out	0x3d, r28	; 61
     fa2:	97 fd       	sbrc	r25, 7
     fa4:	1d c0       	rjmp	.+58     	; 0xfe0 <printint+0x68>
     fa6:	8e 01       	movw	r16, r28
     fa8:	0f 5f       	subi	r16, 0xFF	; 255
     faa:	1f 4f       	sbci	r17, 0xFF	; 255
     fac:	78 01       	movw	r14, r16
     fae:	4a e0       	ldi	r20, 0x0A	; 10
     fb0:	44 2e       	mov	r4, r20
     fb2:	51 2c       	mov	r5, r1
     fb4:	61 2c       	mov	r6, r1
     fb6:	71 2c       	mov	r7, r1
     fb8:	0f 5f       	subi	r16, 0xFF	; 255
     fba:	1f 4f       	sbci	r17, 0xFF	; 255
     fbc:	68 01       	movw	r12, r16
     fbe:	21 e0       	ldi	r18, 0x01	; 1
     fc0:	c2 1a       	sub	r12, r18
     fc2:	d1 08       	sbc	r13, r1
     fc4:	a3 01       	movw	r20, r6
     fc6:	92 01       	movw	r18, r4
     fc8:	0e 94 72 0a 	call	0x14e4	; 0x14e4 <__divmodsi4>
     fcc:	60 5d       	subi	r22, 0xD0	; 208
     fce:	d6 01       	movw	r26, r12
     fd0:	6c 93       	st	X, r22
     fd2:	ca 01       	movw	r24, r20
     fd4:	b9 01       	movw	r22, r18
     fd6:	23 2b       	or	r18, r19
     fd8:	24 2b       	or	r18, r20
     fda:	25 2b       	or	r18, r21
     fdc:	69 f7       	brne	.-38     	; 0xfb8 <printint+0x40>
     fde:	21 c0       	rjmp	.+66     	; 0x1022 <printint+0xaa>
     fe0:	2d e2       	ldi	r18, 0x2D	; 45
     fe2:	29 83       	std	Y+1, r18	; 0x01
     fe4:	8e 01       	movw	r16, r28
     fe6:	0e 5f       	subi	r16, 0xFE	; 254
     fe8:	1f 4f       	sbci	r17, 0xFF	; 255
     fea:	78 01       	movw	r14, r16
     fec:	2a e0       	ldi	r18, 0x0A	; 10
     fee:	42 2e       	mov	r4, r18
     ff0:	51 2c       	mov	r5, r1
     ff2:	61 2c       	mov	r6, r1
     ff4:	71 2c       	mov	r7, r1
     ff6:	30 e3       	ldi	r19, 0x30	; 48
     ff8:	b3 2e       	mov	r11, r19
     ffa:	0f 5f       	subi	r16, 0xFF	; 255
     ffc:	1f 4f       	sbci	r17, 0xFF	; 255
     ffe:	68 01       	movw	r12, r16
    1000:	b1 e0       	ldi	r27, 0x01	; 1
    1002:	cb 1a       	sub	r12, r27
    1004:	d1 08       	sbc	r13, r1
    1006:	a3 01       	movw	r20, r6
    1008:	92 01       	movw	r18, r4
    100a:	0e 94 72 0a 	call	0x14e4	; 0x14e4 <__divmodsi4>
    100e:	8b 2d       	mov	r24, r11
    1010:	86 1b       	sub	r24, r22
    1012:	f6 01       	movw	r30, r12
    1014:	80 83       	st	Z, r24
    1016:	ca 01       	movw	r24, r20
    1018:	b9 01       	movw	r22, r18
    101a:	23 2b       	or	r18, r19
    101c:	24 2b       	or	r18, r20
    101e:	25 2b       	or	r18, r21
    1020:	61 f7       	brne	.-40     	; 0xffa <printint+0x82>
    1022:	f7 01       	movw	r30, r14
    1024:	d8 01       	movw	r26, r16
    1026:	1c 92       	st	X, r1
    1028:	01 50       	subi	r16, 0x01	; 1
    102a:	11 09       	sbc	r17, r1
    102c:	0e 17       	cp	r16, r30
    102e:	1f 07       	cpc	r17, r31
    1030:	30 f0       	brcs	.+12     	; 0x103e <printint+0xc6>
    1032:	80 81       	ld	r24, Z
    1034:	d8 01       	movw	r26, r16
    1036:	9c 91       	ld	r25, X
    1038:	91 93       	st	Z+, r25
    103a:	8c 93       	st	X, r24
    103c:	f5 cf       	rjmp	.-22     	; 0x1028 <printint+0xb0>
    103e:	8e 01       	movw	r16, r28
    1040:	0f 5f       	subi	r16, 0xFF	; 255
    1042:	1f 4f       	sbci	r17, 0xFF	; 255
    1044:	f8 01       	movw	r30, r16
    1046:	81 91       	ld	r24, Z+
    1048:	8f 01       	movw	r16, r30
    104a:	88 23       	and	r24, r24
    104c:	19 f0       	breq	.+6      	; 0x1054 <printint+0xdc>
    104e:	0e 94 d5 09 	call	0x13aa	; 0x13aa <USART_SendByte>
    1052:	f8 cf       	rjmp	.-16     	; 0x1044 <printint+0xcc>
    1054:	6e 96       	adiw	r28, 0x1e	; 30
    1056:	0f b6       	in	r0, 0x3f	; 63
    1058:	f8 94       	cli
    105a:	de bf       	out	0x3e, r29	; 62
    105c:	0f be       	out	0x3f, r0	; 63
    105e:	cd bf       	out	0x3d, r28	; 61
    1060:	df 91       	pop	r29
    1062:	cf 91       	pop	r28
    1064:	1f 91       	pop	r17
    1066:	0f 91       	pop	r16
    1068:	ff 90       	pop	r15
    106a:	ef 90       	pop	r14
    106c:	df 90       	pop	r13
    106e:	cf 90       	pop	r12
    1070:	bf 90       	pop	r11
    1072:	7f 90       	pop	r7
    1074:	6f 90       	pop	r6
    1076:	5f 90       	pop	r5
    1078:	4f 90       	pop	r4
    107a:	08 95       	ret

0000107c <printhex>:
    107c:	8f 92       	push	r8
    107e:	9f 92       	push	r9
    1080:	af 92       	push	r10
    1082:	bf 92       	push	r11
    1084:	cf 92       	push	r12
    1086:	df 92       	push	r13
    1088:	ef 92       	push	r14
    108a:	ff 92       	push	r15
    108c:	0f 93       	push	r16
    108e:	1f 93       	push	r17
    1090:	cf 93       	push	r28
    1092:	df 93       	push	r29
    1094:	cd b7       	in	r28, 0x3d	; 61
    1096:	de b7       	in	r29, 0x3e	; 62
    1098:	6e 97       	sbiw	r28, 0x1e	; 30
    109a:	0f b6       	in	r0, 0x3f	; 63
    109c:	f8 94       	cli
    109e:	de bf       	out	0x3e, r29	; 62
    10a0:	0f be       	out	0x3f, r0	; 63
    10a2:	cd bf       	out	0x3d, r28	; 61
    10a4:	4b 01       	movw	r8, r22
    10a6:	5c 01       	movw	r10, r24
    10a8:	de 01       	movw	r26, r28
    10aa:	11 96       	adiw	r26, 0x01	; 1
    10ac:	8d 01       	movw	r16, r26
    10ae:	fd 01       	movw	r30, r26
    10b0:	31 96       	adiw	r30, 0x01	; 1
    10b2:	75 01       	movw	r14, r10
    10b4:	64 01       	movw	r12, r8
    10b6:	2f e0       	ldi	r18, 0x0F	; 15
    10b8:	c2 22       	and	r12, r18
    10ba:	dd 24       	eor	r13, r13
    10bc:	ee 24       	eor	r14, r14
    10be:	ff 24       	eor	r15, r15
    10c0:	20 e3       	ldi	r18, 0x30	; 48
    10c2:	2c 0d       	add	r18, r12
    10c4:	2c 93       	st	X, r18
    10c6:	24 e0       	ldi	r18, 0x04	; 4
    10c8:	b6 94       	lsr	r11
    10ca:	a7 94       	ror	r10
    10cc:	97 94       	ror	r9
    10ce:	87 94       	ror	r8
    10d0:	2a 95       	dec	r18
    10d2:	d1 f7       	brne	.-12     	; 0x10c8 <printhex+0x4c>
    10d4:	81 14       	cp	r8, r1
    10d6:	91 04       	cpc	r9, r1
    10d8:	a1 04       	cpc	r10, r1
    10da:	b1 04       	cpc	r11, r1
    10dc:	11 f0       	breq	.+4      	; 0x10e2 <printhex+0x66>
    10de:	df 01       	movw	r26, r30
    10e0:	e6 cf       	rjmp	.-52     	; 0x10ae <printhex+0x32>
    10e2:	60 31       	cpi	r22, 0x10	; 16
    10e4:	71 05       	cpc	r23, r1
    10e6:	81 05       	cpc	r24, r1
    10e8:	91 05       	cpc	r25, r1
    10ea:	20 f4       	brcc	.+8      	; 0x10f4 <printhex+0x78>
    10ec:	31 96       	adiw	r30, 0x01	; 1
    10ee:	80 e3       	ldi	r24, 0x30	; 48
    10f0:	11 96       	adiw	r26, 0x01	; 1
    10f2:	8c 93       	st	X, r24
    10f4:	10 82       	st	Z, r1
    10f6:	d8 01       	movw	r26, r16
    10f8:	31 97       	sbiw	r30, 0x01	; 1
    10fa:	ea 17       	cp	r30, r26
    10fc:	fb 07       	cpc	r31, r27
    10fe:	60 f0       	brcs	.+24     	; 0x1118 <printhex+0x9c>
    1100:	9c 91       	ld	r25, X
    1102:	9a 33       	cpi	r25, 0x3A	; 58
    1104:	0c f0       	brlt	.+2      	; 0x1108 <printhex+0x8c>
    1106:	99 5d       	subi	r25, 0xD9	; 217
    1108:	80 81       	ld	r24, Z
    110a:	8a 33       	cpi	r24, 0x3A	; 58
    110c:	0c f0       	brlt	.+2      	; 0x1110 <printhex+0x94>
    110e:	89 5d       	subi	r24, 0xD9	; 217
    1110:	8c 93       	st	X, r24
    1112:	90 83       	st	Z, r25
    1114:	11 96       	adiw	r26, 0x01	; 1
    1116:	f0 cf       	rjmp	.-32     	; 0x10f8 <printhex+0x7c>
    1118:	f8 01       	movw	r30, r16
    111a:	81 91       	ld	r24, Z+
    111c:	8f 01       	movw	r16, r30
    111e:	88 23       	and	r24, r24
    1120:	19 f0       	breq	.+6      	; 0x1128 <printhex+0xac>
    1122:	0e 94 d5 09 	call	0x13aa	; 0x13aa <USART_SendByte>
    1126:	f8 cf       	rjmp	.-16     	; 0x1118 <printhex+0x9c>
    1128:	6e 96       	adiw	r28, 0x1e	; 30
    112a:	0f b6       	in	r0, 0x3f	; 63
    112c:	f8 94       	cli
    112e:	de bf       	out	0x3e, r29	; 62
    1130:	0f be       	out	0x3f, r0	; 63
    1132:	cd bf       	out	0x3d, r28	; 61
    1134:	df 91       	pop	r29
    1136:	cf 91       	pop	r28
    1138:	1f 91       	pop	r17
    113a:	0f 91       	pop	r16
    113c:	ff 90       	pop	r15
    113e:	ef 90       	pop	r14
    1140:	df 90       	pop	r13
    1142:	cf 90       	pop	r12
    1144:	bf 90       	pop	r11
    1146:	af 90       	pop	r10
    1148:	9f 90       	pop	r9
    114a:	8f 90       	pop	r8
    114c:	08 95       	ret

0000114e <print>:
    114e:	cf 93       	push	r28
    1150:	df 93       	push	r29
    1152:	ec 01       	movw	r28, r24
    1154:	89 91       	ld	r24, Y+
    1156:	88 23       	and	r24, r24
    1158:	19 f0       	breq	.+6      	; 0x1160 <print+0x12>
    115a:	0e 94 d5 09 	call	0x13aa	; 0x13aa <USART_SendByte>
    115e:	fa cf       	rjmp	.-12     	; 0x1154 <print+0x6>
    1160:	df 91       	pop	r29
    1162:	cf 91       	pop	r28
    1164:	08 95       	ret

00001166 <printfloat>:
    1166:	8f 92       	push	r8
    1168:	9f 92       	push	r9
    116a:	af 92       	push	r10
    116c:	bf 92       	push	r11
    116e:	cf 92       	push	r12
    1170:	df 92       	push	r13
    1172:	ef 92       	push	r14
    1174:	ff 92       	push	r15
    1176:	6b 01       	movw	r12, r22
    1178:	7c 01       	movw	r14, r24
    117a:	0e 94 84 0b 	call	0x1708	; 0x1708 <__fixunssfsi>
    117e:	4b 01       	movw	r8, r22
    1180:	5c 01       	movw	r10, r24
    1182:	0e 94 bc 07 	call	0xf78	; 0xf78 <printint>
    1186:	83 e2       	ldi	r24, 0x23	; 35
    1188:	91 e0       	ldi	r25, 0x01	; 1
    118a:	0e 94 a7 08 	call	0x114e	; 0x114e <print>
    118e:	c5 01       	movw	r24, r10
    1190:	b4 01       	movw	r22, r8
    1192:	0e 94 b3 0b 	call	0x1766	; 0x1766 <__floatunsisf>
    1196:	9b 01       	movw	r18, r22
    1198:	ac 01       	movw	r20, r24
    119a:	c7 01       	movw	r24, r14
    119c:	b6 01       	movw	r22, r12
    119e:	0e 94 a5 0a 	call	0x154a	; 0x154a <__subsf3>
    11a2:	20 e0       	ldi	r18, 0x00	; 0
    11a4:	30 e0       	ldi	r19, 0x00	; 0
    11a6:	4a e7       	ldi	r20, 0x7A	; 122
    11a8:	54 e4       	ldi	r21, 0x44	; 68
    11aa:	0e 94 46 0c 	call	0x188c	; 0x188c <__mulsf3>
    11ae:	0e 94 84 0b 	call	0x1708	; 0x1708 <__fixunssfsi>
    11b2:	6b 01       	movw	r12, r22
    11b4:	7c 01       	movw	r14, r24
    11b6:	84 e6       	ldi	r24, 0x64	; 100
    11b8:	c8 16       	cp	r12, r24
    11ba:	d1 04       	cpc	r13, r1
    11bc:	e1 04       	cpc	r14, r1
    11be:	f1 04       	cpc	r15, r1
    11c0:	70 f4       	brcc	.+28     	; 0x11de <printfloat+0x78>
    11c2:	85 e2       	ldi	r24, 0x25	; 37
    11c4:	91 e0       	ldi	r25, 0x01	; 1
    11c6:	0e 94 a7 08 	call	0x114e	; 0x114e <print>
    11ca:	8a e0       	ldi	r24, 0x0A	; 10
    11cc:	c8 16       	cp	r12, r24
    11ce:	d1 04       	cpc	r13, r1
    11d0:	e1 04       	cpc	r14, r1
    11d2:	f1 04       	cpc	r15, r1
    11d4:	20 f4       	brcc	.+8      	; 0x11de <printfloat+0x78>
    11d6:	85 e2       	ldi	r24, 0x25	; 37
    11d8:	91 e0       	ldi	r25, 0x01	; 1
    11da:	0e 94 a7 08 	call	0x114e	; 0x114e <print>
    11de:	c7 01       	movw	r24, r14
    11e0:	b6 01       	movw	r22, r12
    11e2:	ff 90       	pop	r15
    11e4:	ef 90       	pop	r14
    11e6:	df 90       	pop	r13
    11e8:	cf 90       	pop	r12
    11ea:	bf 90       	pop	r11
    11ec:	af 90       	pop	r10
    11ee:	9f 90       	pop	r9
    11f0:	8f 90       	pop	r8
    11f2:	0c 94 bc 07 	jmp	0xf78	; 0xf78 <printint>

000011f6 <uart_init>:
    11f6:	cf 93       	push	r28
    11f8:	c4 2f       	mov	r28, r20
    11fa:	f8 94       	cli
    11fc:	9b 01       	movw	r18, r22
    11fe:	ac 01       	movw	r20, r24
    1200:	84 e0       	ldi	r24, 0x04	; 4
    1202:	22 0f       	add	r18, r18
    1204:	33 1f       	adc	r19, r19
    1206:	44 1f       	adc	r20, r20
    1208:	55 1f       	adc	r21, r21
    120a:	8a 95       	dec	r24
    120c:	d1 f7       	brne	.-12     	; 0x1202 <uart_init+0xc>
    120e:	60 e0       	ldi	r22, 0x00	; 0
    1210:	74 e2       	ldi	r23, 0x24	; 36
    1212:	84 ef       	ldi	r24, 0xF4	; 244
    1214:	90 e0       	ldi	r25, 0x00	; 0
    1216:	0e 94 50 0a 	call	0x14a0	; 0x14a0 <__udivmodsi4>
    121a:	ba 01       	movw	r22, r20
    121c:	a9 01       	movw	r20, r18
    121e:	41 50       	subi	r20, 0x01	; 1
    1220:	51 09       	sbc	r21, r1
    1222:	61 09       	sbc	r22, r1
    1224:	71 09       	sbc	r23, r1
    1226:	bb 27       	eor	r27, r27
    1228:	a7 2f       	mov	r26, r23
    122a:	96 2f       	mov	r25, r22
    122c:	85 2f       	mov	r24, r21
    122e:	80 93 c5 00 	sts	0x00C5, r24	; 0x8000c5 <__DATA_REGION_ORIGIN__+0x65>
    1232:	40 93 c4 00 	sts	0x00C4, r20	; 0x8000c4 <__DATA_REGION_ORIGIN__+0x64>
    1236:	86 e0       	ldi	r24, 0x06	; 6
    1238:	80 93 c2 00 	sts	0x00C2, r24	; 0x8000c2 <__DATA_REGION_ORIGIN__+0x62>
    123c:	c1 11       	cpse	r28, r1
    123e:	02 c0       	rjmp	.+4      	; 0x1244 <uart_init+0x4e>
    1240:	88 e9       	ldi	r24, 0x98	; 152
    1242:	01 c0       	rjmp	.+2      	; 0x1246 <uart_init+0x50>
    1244:	88 e1       	ldi	r24, 0x18	; 24
    1246:	80 93 c1 00 	sts	0x00C1, r24	; 0x8000c1 <__DATA_REGION_ORIGIN__+0x61>
    124a:	78 94       	sei
    124c:	cf 91       	pop	r28
    124e:	08 95       	ret

00001250 <uart_flush>:
    1250:	10 92 69 03 	sts	0x0369, r1	; 0x800369 <uart+0x41>
    1254:	10 92 68 03 	sts	0x0368, r1	; 0x800368 <uart+0x40>
    1258:	10 92 6b 03 	sts	0x036B, r1	; 0x80036b <uart+0x43>
    125c:	10 92 6a 03 	sts	0x036A, r1	; 0x80036a <uart+0x42>
    1260:	10 92 6d 03 	sts	0x036D, r1	; 0x80036d <uart+0x45>
    1264:	10 92 6c 03 	sts	0x036C, r1	; 0x80036c <uart+0x44>
    1268:	08 95       	ret

0000126a <uart_rxsize>:
    126a:	80 91 6c 03 	lds	r24, 0x036C	; 0x80036c <uart+0x44>
    126e:	90 91 6d 03 	lds	r25, 0x036D	; 0x80036d <uart+0x45>
    1272:	08 95       	ret

00001274 <uart_tx>:
    1274:	90 91 c0 00 	lds	r25, 0x00C0	; 0x8000c0 <__DATA_REGION_ORIGIN__+0x60>
    1278:	95 ff       	sbrs	r25, 5
    127a:	fc cf       	rjmp	.-8      	; 0x1274 <uart_tx>
    127c:	80 93 c6 00 	sts	0x00C6, r24	; 0x8000c6 <__DATA_REGION_ORIGIN__+0x66>
    1280:	08 95       	ret

00001282 <uart_rx_polled>:
    1282:	80 91 c0 00 	lds	r24, 0x00C0	; 0x8000c0 <__DATA_REGION_ORIGIN__+0x60>
    1286:	87 ff       	sbrs	r24, 7
    1288:	fc cf       	rjmp	.-8      	; 0x1282 <uart_rx_polled>
    128a:	80 91 c6 00 	lds	r24, 0x00C6	; 0x8000c6 <__DATA_REGION_ORIGIN__+0x66>
    128e:	08 95       	ret

00001290 <uart_rx>:
    1290:	20 91 68 03 	lds	r18, 0x0368	; 0x800368 <uart+0x40>
    1294:	30 91 69 03 	lds	r19, 0x0369	; 0x800369 <uart+0x41>
    1298:	80 91 6a 03 	lds	r24, 0x036A	; 0x80036a <uart+0x42>
    129c:	90 91 6b 03 	lds	r25, 0x036B	; 0x80036b <uart+0x43>
    12a0:	28 17       	cp	r18, r24
    12a2:	39 07       	cpc	r19, r25
    12a4:	a9 f3       	breq	.-22     	; 0x1290 <uart_rx>
    12a6:	f8 94       	cli
    12a8:	e0 91 68 03 	lds	r30, 0x0368	; 0x800368 <uart+0x40>
    12ac:	f0 91 69 03 	lds	r31, 0x0369	; 0x800369 <uart+0x41>
    12b0:	e8 5d       	subi	r30, 0xD8	; 216
    12b2:	fc 4f       	sbci	r31, 0xFC	; 252
    12b4:	80 81       	ld	r24, Z
    12b6:	20 91 68 03 	lds	r18, 0x0368	; 0x800368 <uart+0x40>
    12ba:	30 91 69 03 	lds	r19, 0x0369	; 0x800369 <uart+0x41>
    12be:	2f 5f       	subi	r18, 0xFF	; 255
    12c0:	3f 4f       	sbci	r19, 0xFF	; 255
    12c2:	2f 73       	andi	r18, 0x3F	; 63
    12c4:	33 27       	eor	r19, r19
    12c6:	30 93 69 03 	sts	0x0369, r19	; 0x800369 <uart+0x41>
    12ca:	20 93 68 03 	sts	0x0368, r18	; 0x800368 <uart+0x40>
    12ce:	20 91 6c 03 	lds	r18, 0x036C	; 0x80036c <uart+0x44>
    12d2:	30 91 6d 03 	lds	r19, 0x036D	; 0x80036d <uart+0x45>
    12d6:	21 50       	subi	r18, 0x01	; 1
    12d8:	31 09       	sbc	r19, r1
    12da:	30 93 6d 03 	sts	0x036D, r19	; 0x80036d <uart+0x45>
    12de:	20 93 6c 03 	sts	0x036C, r18	; 0x80036c <uart+0x44>
    12e2:	78 94       	sei
    12e4:	08 95       	ret

000012e6 <__vector_18>:
    12e6:	1f 92       	push	r1
    12e8:	0f 92       	push	r0
    12ea:	0f b6       	in	r0, 0x3f	; 63
    12ec:	0f 92       	push	r0
    12ee:	11 24       	eor	r1, r1
    12f0:	2f 93       	push	r18
    12f2:	3f 93       	push	r19
    12f4:	8f 93       	push	r24
    12f6:	9f 93       	push	r25
    12f8:	af 93       	push	r26
    12fa:	bf 93       	push	r27
    12fc:	ef 93       	push	r30
    12fe:	ff 93       	push	r31
    1300:	80 91 c0 00 	lds	r24, 0x00C0	; 0x8000c0 <__DATA_REGION_ORIGIN__+0x60>
    1304:	87 ff       	sbrs	r24, 7
    1306:	38 c0       	rjmp	.+112    	; 0x1378 <__vector_18+0x92>
    1308:	80 91 6a 03 	lds	r24, 0x036A	; 0x80036a <uart+0x42>
    130c:	90 91 6b 03 	lds	r25, 0x036B	; 0x80036b <uart+0x43>
    1310:	01 96       	adiw	r24, 0x01	; 1
    1312:	8f 73       	andi	r24, 0x3F	; 63
    1314:	99 27       	eor	r25, r25
    1316:	20 91 68 03 	lds	r18, 0x0368	; 0x800368 <uart+0x40>
    131a:	30 91 69 03 	lds	r19, 0x0369	; 0x800369 <uart+0x41>
    131e:	82 17       	cp	r24, r18
    1320:	93 07       	cpc	r25, r19
    1322:	b9 f0       	breq	.+46     	; 0x1352 <__vector_18+0x6c>
    1324:	e0 91 6a 03 	lds	r30, 0x036A	; 0x80036a <uart+0x42>
    1328:	f0 91 6b 03 	lds	r31, 0x036B	; 0x80036b <uart+0x43>
    132c:	20 91 c6 00 	lds	r18, 0x00C6	; 0x8000c6 <__DATA_REGION_ORIGIN__+0x66>
    1330:	e8 5d       	subi	r30, 0xD8	; 216
    1332:	fc 4f       	sbci	r31, 0xFC	; 252
    1334:	20 83       	st	Z, r18
    1336:	90 93 6b 03 	sts	0x036B, r25	; 0x80036b <uart+0x43>
    133a:	80 93 6a 03 	sts	0x036A, r24	; 0x80036a <uart+0x42>
    133e:	80 91 6c 03 	lds	r24, 0x036C	; 0x80036c <uart+0x44>
    1342:	90 91 6d 03 	lds	r25, 0x036D	; 0x80036d <uart+0x45>
    1346:	01 96       	adiw	r24, 0x01	; 1
    1348:	90 93 6d 03 	sts	0x036D, r25	; 0x80036d <uart+0x45>
    134c:	80 93 6c 03 	sts	0x036C, r24	; 0x80036c <uart+0x44>
    1350:	d7 cf       	rjmp	.-82     	; 0x1300 <__vector_18+0x1a>
    1352:	80 91 6e 03 	lds	r24, 0x036E	; 0x80036e <uart+0x46>
    1356:	90 91 6f 03 	lds	r25, 0x036F	; 0x80036f <uart+0x47>
    135a:	a0 91 70 03 	lds	r26, 0x0370	; 0x800370 <uart+0x48>
    135e:	b0 91 71 03 	lds	r27, 0x0371	; 0x800371 <uart+0x49>
    1362:	01 96       	adiw	r24, 0x01	; 1
    1364:	a1 1d       	adc	r26, r1
    1366:	b1 1d       	adc	r27, r1
    1368:	80 93 6e 03 	sts	0x036E, r24	; 0x80036e <uart+0x46>
    136c:	90 93 6f 03 	sts	0x036F, r25	; 0x80036f <uart+0x47>
    1370:	a0 93 70 03 	sts	0x0370, r26	; 0x800370 <uart+0x48>
    1374:	b0 93 71 03 	sts	0x0371, r27	; 0x800371 <uart+0x49>
    1378:	ff 91       	pop	r31
    137a:	ef 91       	pop	r30
    137c:	bf 91       	pop	r27
    137e:	af 91       	pop	r26
    1380:	9f 91       	pop	r25
    1382:	8f 91       	pop	r24
    1384:	3f 91       	pop	r19
    1386:	2f 91       	pop	r18
    1388:	0f 90       	pop	r0
    138a:	0f be       	out	0x3f, r0	; 63
    138c:	0f 90       	pop	r0
    138e:	1f 90       	pop	r1
    1390:	18 95       	reti

00001392 <USART_Init>:
    1392:	10 92 c5 00 	sts	0x00C5, r1	; 0x8000c5 <__DATA_REGION_ORIGIN__+0x65>
    1396:	80 e1       	ldi	r24, 0x10	; 16
    1398:	80 93 c4 00 	sts	0x00C4, r24	; 0x8000c4 <__DATA_REGION_ORIGIN__+0x64>
    139c:	86 e0       	ldi	r24, 0x06	; 6
    139e:	80 93 c2 00 	sts	0x00C2, r24	; 0x8000c2 <__DATA_REGION_ORIGIN__+0x62>
    13a2:	88 e1       	ldi	r24, 0x18	; 24
    13a4:	80 93 c1 00 	sts	0x00C1, r24	; 0x8000c1 <__DATA_REGION_ORIGIN__+0x61>
    13a8:	08 95       	ret

000013aa <USART_SendByte>:
    13aa:	90 91 c0 00 	lds	r25, 0x00C0	; 0x8000c0 <__DATA_REGION_ORIGIN__+0x60>
    13ae:	95 ff       	sbrs	r25, 5
    13b0:	fc cf       	rjmp	.-8      	; 0x13aa <USART_SendByte>
    13b2:	80 93 c6 00 	sts	0x00C6, r24	; 0x8000c6 <__DATA_REGION_ORIGIN__+0x66>
    13b6:	08 95       	ret

000013b8 <USART_ReceiveByte>:
    13b8:	80 91 c0 00 	lds	r24, 0x00C0	; 0x8000c0 <__DATA_REGION_ORIGIN__+0x60>
    13bc:	87 ff       	sbrs	r24, 7
    13be:	fc cf       	rjmp	.-8      	; 0x13b8 <USART_ReceiveByte>
    13c0:	80 91 c6 00 	lds	r24, 0x00C6	; 0x8000c6 <__DATA_REGION_ORIGIN__+0x66>
    13c4:	08 95       	ret

000013c6 <USART_puts>:
    13c6:	cf 93       	push	r28
    13c8:	df 93       	push	r29
    13ca:	ec 01       	movw	r28, r24
    13cc:	89 91       	ld	r24, Y+
    13ce:	88 23       	and	r24, r24
    13d0:	19 f0       	breq	.+6      	; 0x13d8 <USART_puts+0x12>
    13d2:	0e 94 d5 09 	call	0x13aa	; 0x13aa <USART_SendByte>
    13d6:	fa cf       	rjmp	.-12     	; 0x13cc <USART_puts+0x6>
    13d8:	8a e0       	ldi	r24, 0x0A	; 10
    13da:	df 91       	pop	r29
    13dc:	cf 91       	pop	r28
    13de:	0c 94 d5 09 	jmp	0x13aa	; 0x13aa <USART_SendByte>

000013e2 <main>:
    13e2:	40 e0       	ldi	r20, 0x00	; 0
    13e4:	60 e0       	ldi	r22, 0x00	; 0
    13e6:	71 ee       	ldi	r23, 0xE1	; 225
    13e8:	80 e0       	ldi	r24, 0x00	; 0
    13ea:	90 e0       	ldi	r25, 0x00	; 0
    13ec:	0e 94 fb 08 	call	0x11f6	; 0x11f6 <uart_init>
    13f0:	8a b1       	in	r24, 0x0a	; 10
    13f2:	87 70       	andi	r24, 0x07	; 7
    13f4:	8a b9       	out	0x0a, r24	; 10
    13f6:	8b b1       	in	r24, 0x0b	; 11
    13f8:	88 6f       	ori	r24, 0xF8	; 248
    13fa:	8b b9       	out	0x0b, r24	; 11
    13fc:	80 91 68 00 	lds	r24, 0x0068	; 0x800068 <__DATA_REGION_ORIGIN__+0x8>
    1400:	86 60       	ori	r24, 0x06	; 6
    1402:	80 93 68 00 	sts	0x0068, r24	; 0x800068 <__DATA_REGION_ORIGIN__+0x8>
    1406:	80 91 6d 00 	lds	r24, 0x006D	; 0x80006d <__DATA_REGION_ORIGIN__+0xd>
    140a:	88 6f       	ori	r24, 0xF8	; 248
    140c:	80 93 6d 00 	sts	0x006D, r24	; 0x80006d <__DATA_REGION_ORIGIN__+0xd>
    1410:	8a b1       	in	r24, 0x0a	; 10
    1412:	87 60       	ori	r24, 0x07	; 7
    1414:	8a b9       	out	0x0a, r24	; 10
    1416:	87 b1       	in	r24, 0x07	; 7
    1418:	8f 64       	ori	r24, 0x4F	; 79
    141a:	87 b9       	out	0x07, r24	; 7
    141c:	80 91 81 00 	lds	r24, 0x0081	; 0x800081 <__DATA_REGION_ORIGIN__+0x21>
    1420:	8d 60       	ori	r24, 0x0D	; 13
    1422:	80 93 81 00 	sts	0x0081, r24	; 0x800081 <__DATA_REGION_ORIGIN__+0x21>
    1426:	8d e3       	ldi	r24, 0x3D	; 61
    1428:	80 93 89 00 	sts	0x0089, r24	; 0x800089 <__DATA_REGION_ORIGIN__+0x29>
    142c:	88 e0       	ldi	r24, 0x08	; 8
    142e:	80 93 88 00 	sts	0x0088, r24	; 0x800088 <__DATA_REGION_ORIGIN__+0x28>
    1432:	80 91 6f 00 	lds	r24, 0x006F	; 0x80006f <__DATA_REGION_ORIGIN__+0xf>
    1436:	82 60       	ori	r24, 0x02	; 2
    1438:	80 93 6f 00 	sts	0x006F, r24	; 0x80006f <__DATA_REGION_ORIGIN__+0xf>
    143c:	78 94       	sei
    143e:	0e 94 11 05 	call	0xa22	; 0xa22 <nokia_lcd_init>
    1442:	81 e0       	ldi	r24, 0x01	; 1
    1444:	0e 94 69 05 	call	0xad2	; 0xad2 <nokia_lcd_power>
    1448:	0e 94 54 05 	call	0xaa8	; 0xaa8 <nokia_lcd_clear>
    144c:	80 91 2a 01 	lds	r24, 0x012A	; 0x80012a <randomParam>
    1450:	90 91 2b 01 	lds	r25, 0x012B	; 0x80012b <randomParam+0x1>
    1454:	01 96       	adiw	r24, 0x01	; 1
    1456:	90 93 2b 01 	sts	0x012B, r25	; 0x80012b <randomParam+0x1>
    145a:	80 93 2a 01 	sts	0x012A, r24	; 0x80012a <randomParam>
    145e:	f6 cf       	rjmp	.-20     	; 0x144c <main+0x6a>

00001460 <__udivmodqi4>:
    1460:	99 1b       	sub	r25, r25
    1462:	79 e0       	ldi	r23, 0x09	; 9
    1464:	04 c0       	rjmp	.+8      	; 0x146e <__udivmodqi4_ep>

00001466 <__udivmodqi4_loop>:
    1466:	99 1f       	adc	r25, r25
    1468:	96 17       	cp	r25, r22
    146a:	08 f0       	brcs	.+2      	; 0x146e <__udivmodqi4_ep>
    146c:	96 1b       	sub	r25, r22

0000146e <__udivmodqi4_ep>:
    146e:	88 1f       	adc	r24, r24
    1470:	7a 95       	dec	r23
    1472:	c9 f7       	brne	.-14     	; 0x1466 <__udivmodqi4_loop>
    1474:	80 95       	com	r24
    1476:	08 95       	ret

00001478 <__divmodhi4>:
    1478:	97 fb       	bst	r25, 7
    147a:	07 2e       	mov	r0, r23
    147c:	16 f4       	brtc	.+4      	; 0x1482 <__divmodhi4+0xa>
    147e:	00 94       	com	r0
    1480:	07 d0       	rcall	.+14     	; 0x1490 <__divmodhi4_neg1>
    1482:	77 fd       	sbrc	r23, 7
    1484:	09 d0       	rcall	.+18     	; 0x1498 <__divmodhi4_neg2>
    1486:	0e 94 91 0a 	call	0x1522	; 0x1522 <__udivmodhi4>
    148a:	07 fc       	sbrc	r0, 7
    148c:	05 d0       	rcall	.+10     	; 0x1498 <__divmodhi4_neg2>
    148e:	3e f4       	brtc	.+14     	; 0x149e <__divmodhi4_exit>

00001490 <__divmodhi4_neg1>:
    1490:	90 95       	com	r25
    1492:	81 95       	neg	r24
    1494:	9f 4f       	sbci	r25, 0xFF	; 255
    1496:	08 95       	ret

00001498 <__divmodhi4_neg2>:
    1498:	70 95       	com	r23
    149a:	61 95       	neg	r22
    149c:	7f 4f       	sbci	r23, 0xFF	; 255

0000149e <__divmodhi4_exit>:
    149e:	08 95       	ret

000014a0 <__udivmodsi4>:
    14a0:	a1 e2       	ldi	r26, 0x21	; 33
    14a2:	1a 2e       	mov	r1, r26
    14a4:	aa 1b       	sub	r26, r26
    14a6:	bb 1b       	sub	r27, r27
    14a8:	fd 01       	movw	r30, r26
    14aa:	0d c0       	rjmp	.+26     	; 0x14c6 <__udivmodsi4_ep>

000014ac <__udivmodsi4_loop>:
    14ac:	aa 1f       	adc	r26, r26
    14ae:	bb 1f       	adc	r27, r27
    14b0:	ee 1f       	adc	r30, r30
    14b2:	ff 1f       	adc	r31, r31
    14b4:	a2 17       	cp	r26, r18
    14b6:	b3 07       	cpc	r27, r19
    14b8:	e4 07       	cpc	r30, r20
    14ba:	f5 07       	cpc	r31, r21
    14bc:	20 f0       	brcs	.+8      	; 0x14c6 <__udivmodsi4_ep>
    14be:	a2 1b       	sub	r26, r18
    14c0:	b3 0b       	sbc	r27, r19
    14c2:	e4 0b       	sbc	r30, r20
    14c4:	f5 0b       	sbc	r31, r21

000014c6 <__udivmodsi4_ep>:
    14c6:	66 1f       	adc	r22, r22
    14c8:	77 1f       	adc	r23, r23
    14ca:	88 1f       	adc	r24, r24
    14cc:	99 1f       	adc	r25, r25
    14ce:	1a 94       	dec	r1
    14d0:	69 f7       	brne	.-38     	; 0x14ac <__udivmodsi4_loop>
    14d2:	60 95       	com	r22
    14d4:	70 95       	com	r23
    14d6:	80 95       	com	r24
    14d8:	90 95       	com	r25
    14da:	9b 01       	movw	r18, r22
    14dc:	ac 01       	movw	r20, r24
    14de:	bd 01       	movw	r22, r26
    14e0:	cf 01       	movw	r24, r30
    14e2:	08 95       	ret

000014e4 <__divmodsi4>:
    14e4:	05 2e       	mov	r0, r21
    14e6:	97 fb       	bst	r25, 7
    14e8:	1e f4       	brtc	.+6      	; 0x14f0 <__divmodsi4+0xc>
    14ea:	00 94       	com	r0
    14ec:	0e 94 89 0a 	call	0x1512	; 0x1512 <__negsi2>
    14f0:	57 fd       	sbrc	r21, 7
    14f2:	07 d0       	rcall	.+14     	; 0x1502 <__divmodsi4_neg2>
    14f4:	0e 94 50 0a 	call	0x14a0	; 0x14a0 <__udivmodsi4>
    14f8:	07 fc       	sbrc	r0, 7
    14fa:	03 d0       	rcall	.+6      	; 0x1502 <__divmodsi4_neg2>
    14fc:	4e f4       	brtc	.+18     	; 0x1510 <__divmodsi4_exit>
    14fe:	0c 94 89 0a 	jmp	0x1512	; 0x1512 <__negsi2>

00001502 <__divmodsi4_neg2>:
    1502:	50 95       	com	r21
    1504:	40 95       	com	r20
    1506:	30 95       	com	r19
    1508:	21 95       	neg	r18
    150a:	3f 4f       	sbci	r19, 0xFF	; 255
    150c:	4f 4f       	sbci	r20, 0xFF	; 255
    150e:	5f 4f       	sbci	r21, 0xFF	; 255

00001510 <__divmodsi4_exit>:
    1510:	08 95       	ret

00001512 <__negsi2>:
    1512:	90 95       	com	r25
    1514:	80 95       	com	r24
    1516:	70 95       	com	r23
    1518:	61 95       	neg	r22
    151a:	7f 4f       	sbci	r23, 0xFF	; 255
    151c:	8f 4f       	sbci	r24, 0xFF	; 255
    151e:	9f 4f       	sbci	r25, 0xFF	; 255
    1520:	08 95       	ret

00001522 <__udivmodhi4>:
    1522:	aa 1b       	sub	r26, r26
    1524:	bb 1b       	sub	r27, r27
    1526:	51 e1       	ldi	r21, 0x11	; 17
    1528:	07 c0       	rjmp	.+14     	; 0x1538 <__udivmodhi4_ep>

0000152a <__udivmodhi4_loop>:
    152a:	aa 1f       	adc	r26, r26
    152c:	bb 1f       	adc	r27, r27
    152e:	a6 17       	cp	r26, r22
    1530:	b7 07       	cpc	r27, r23
    1532:	10 f0       	brcs	.+4      	; 0x1538 <__udivmodhi4_ep>
    1534:	a6 1b       	sub	r26, r22
    1536:	b7 0b       	sbc	r27, r23

00001538 <__udivmodhi4_ep>:
    1538:	88 1f       	adc	r24, r24
    153a:	99 1f       	adc	r25, r25
    153c:	5a 95       	dec	r21
    153e:	a9 f7       	brne	.-22     	; 0x152a <__udivmodhi4_loop>
    1540:	80 95       	com	r24
    1542:	90 95       	com	r25
    1544:	bc 01       	movw	r22, r24
    1546:	cd 01       	movw	r24, r26
    1548:	08 95       	ret

0000154a <__subsf3>:
    154a:	50 58       	subi	r21, 0x80	; 128

0000154c <__addsf3>:
    154c:	bb 27       	eor	r27, r27
    154e:	aa 27       	eor	r26, r26
    1550:	0e 94 bd 0a 	call	0x157a	; 0x157a <__addsf3x>
    1554:	0c 94 07 0c 	jmp	0x180e	; 0x180e <__fp_round>
    1558:	0e 94 f9 0b 	call	0x17f2	; 0x17f2 <__fp_pscA>
    155c:	38 f0       	brcs	.+14     	; 0x156c <__addsf3+0x20>
    155e:	0e 94 00 0c 	call	0x1800	; 0x1800 <__fp_pscB>
    1562:	20 f0       	brcs	.+8      	; 0x156c <__addsf3+0x20>
    1564:	39 f4       	brne	.+14     	; 0x1574 <__addsf3+0x28>
    1566:	9f 3f       	cpi	r25, 0xFF	; 255
    1568:	19 f4       	brne	.+6      	; 0x1570 <__addsf3+0x24>
    156a:	26 f4       	brtc	.+8      	; 0x1574 <__addsf3+0x28>
    156c:	0c 94 f6 0b 	jmp	0x17ec	; 0x17ec <__fp_nan>
    1570:	0e f4       	brtc	.+2      	; 0x1574 <__addsf3+0x28>
    1572:	e0 95       	com	r30
    1574:	e7 fb       	bst	r30, 7
    1576:	0c 94 f0 0b 	jmp	0x17e0	; 0x17e0 <__fp_inf>

0000157a <__addsf3x>:
    157a:	e9 2f       	mov	r30, r25
    157c:	0e 94 18 0c 	call	0x1830	; 0x1830 <__fp_split3>
    1580:	58 f3       	brcs	.-42     	; 0x1558 <__addsf3+0xc>
    1582:	ba 17       	cp	r27, r26
    1584:	62 07       	cpc	r22, r18
    1586:	73 07       	cpc	r23, r19
    1588:	84 07       	cpc	r24, r20
    158a:	95 07       	cpc	r25, r21
    158c:	20 f0       	brcs	.+8      	; 0x1596 <__addsf3x+0x1c>
    158e:	79 f4       	brne	.+30     	; 0x15ae <__addsf3x+0x34>
    1590:	a6 f5       	brtc	.+104    	; 0x15fa <__addsf3x+0x80>
    1592:	0c 94 3a 0c 	jmp	0x1874	; 0x1874 <__fp_zero>
    1596:	0e f4       	brtc	.+2      	; 0x159a <__addsf3x+0x20>
    1598:	e0 95       	com	r30
    159a:	0b 2e       	mov	r0, r27
    159c:	ba 2f       	mov	r27, r26
    159e:	a0 2d       	mov	r26, r0
    15a0:	0b 01       	movw	r0, r22
    15a2:	b9 01       	movw	r22, r18
    15a4:	90 01       	movw	r18, r0
    15a6:	0c 01       	movw	r0, r24
    15a8:	ca 01       	movw	r24, r20
    15aa:	a0 01       	movw	r20, r0
    15ac:	11 24       	eor	r1, r1
    15ae:	ff 27       	eor	r31, r31
    15b0:	59 1b       	sub	r21, r25
    15b2:	99 f0       	breq	.+38     	; 0x15da <__addsf3x+0x60>
    15b4:	59 3f       	cpi	r21, 0xF9	; 249
    15b6:	50 f4       	brcc	.+20     	; 0x15cc <__addsf3x+0x52>
    15b8:	50 3e       	cpi	r21, 0xE0	; 224
    15ba:	68 f1       	brcs	.+90     	; 0x1616 <__addsf3x+0x9c>
    15bc:	1a 16       	cp	r1, r26
    15be:	f0 40       	sbci	r31, 0x00	; 0
    15c0:	a2 2f       	mov	r26, r18
    15c2:	23 2f       	mov	r18, r19
    15c4:	34 2f       	mov	r19, r20
    15c6:	44 27       	eor	r20, r20
    15c8:	58 5f       	subi	r21, 0xF8	; 248
    15ca:	f3 cf       	rjmp	.-26     	; 0x15b2 <__addsf3x+0x38>
    15cc:	46 95       	lsr	r20
    15ce:	37 95       	ror	r19
    15d0:	27 95       	ror	r18
    15d2:	a7 95       	ror	r26
    15d4:	f0 40       	sbci	r31, 0x00	; 0
    15d6:	53 95       	inc	r21
    15d8:	c9 f7       	brne	.-14     	; 0x15cc <__addsf3x+0x52>
    15da:	7e f4       	brtc	.+30     	; 0x15fa <__addsf3x+0x80>
    15dc:	1f 16       	cp	r1, r31
    15de:	ba 0b       	sbc	r27, r26
    15e0:	62 0b       	sbc	r22, r18
    15e2:	73 0b       	sbc	r23, r19
    15e4:	84 0b       	sbc	r24, r20
    15e6:	ba f0       	brmi	.+46     	; 0x1616 <__addsf3x+0x9c>
    15e8:	91 50       	subi	r25, 0x01	; 1
    15ea:	a1 f0       	breq	.+40     	; 0x1614 <__addsf3x+0x9a>
    15ec:	ff 0f       	add	r31, r31
    15ee:	bb 1f       	adc	r27, r27
    15f0:	66 1f       	adc	r22, r22
    15f2:	77 1f       	adc	r23, r23
    15f4:	88 1f       	adc	r24, r24
    15f6:	c2 f7       	brpl	.-16     	; 0x15e8 <__addsf3x+0x6e>
    15f8:	0e c0       	rjmp	.+28     	; 0x1616 <__addsf3x+0x9c>
    15fa:	ba 0f       	add	r27, r26
    15fc:	62 1f       	adc	r22, r18
    15fe:	73 1f       	adc	r23, r19
    1600:	84 1f       	adc	r24, r20
    1602:	48 f4       	brcc	.+18     	; 0x1616 <__addsf3x+0x9c>
    1604:	87 95       	ror	r24
    1606:	77 95       	ror	r23
    1608:	67 95       	ror	r22
    160a:	b7 95       	ror	r27
    160c:	f7 95       	ror	r31
    160e:	9e 3f       	cpi	r25, 0xFE	; 254
    1610:	08 f0       	brcs	.+2      	; 0x1614 <__addsf3x+0x9a>
    1612:	b0 cf       	rjmp	.-160    	; 0x1574 <__addsf3+0x28>
    1614:	93 95       	inc	r25
    1616:	88 0f       	add	r24, r24
    1618:	08 f0       	brcs	.+2      	; 0x161c <__addsf3x+0xa2>
    161a:	99 27       	eor	r25, r25
    161c:	ee 0f       	add	r30, r30
    161e:	97 95       	ror	r25
    1620:	87 95       	ror	r24
    1622:	08 95       	ret

00001624 <__divsf3>:
    1624:	0e 94 26 0b 	call	0x164c	; 0x164c <__divsf3x>
    1628:	0c 94 07 0c 	jmp	0x180e	; 0x180e <__fp_round>
    162c:	0e 94 00 0c 	call	0x1800	; 0x1800 <__fp_pscB>
    1630:	58 f0       	brcs	.+22     	; 0x1648 <__divsf3+0x24>
    1632:	0e 94 f9 0b 	call	0x17f2	; 0x17f2 <__fp_pscA>
    1636:	40 f0       	brcs	.+16     	; 0x1648 <__divsf3+0x24>
    1638:	29 f4       	brne	.+10     	; 0x1644 <__divsf3+0x20>
    163a:	5f 3f       	cpi	r21, 0xFF	; 255
    163c:	29 f0       	breq	.+10     	; 0x1648 <__divsf3+0x24>
    163e:	0c 94 f0 0b 	jmp	0x17e0	; 0x17e0 <__fp_inf>
    1642:	51 11       	cpse	r21, r1
    1644:	0c 94 3b 0c 	jmp	0x1876	; 0x1876 <__fp_szero>
    1648:	0c 94 f6 0b 	jmp	0x17ec	; 0x17ec <__fp_nan>

0000164c <__divsf3x>:
    164c:	0e 94 18 0c 	call	0x1830	; 0x1830 <__fp_split3>
    1650:	68 f3       	brcs	.-38     	; 0x162c <__divsf3+0x8>

00001652 <__divsf3_pse>:
    1652:	99 23       	and	r25, r25
    1654:	b1 f3       	breq	.-20     	; 0x1642 <__divsf3+0x1e>
    1656:	55 23       	and	r21, r21
    1658:	91 f3       	breq	.-28     	; 0x163e <__divsf3+0x1a>
    165a:	95 1b       	sub	r25, r21
    165c:	55 0b       	sbc	r21, r21
    165e:	bb 27       	eor	r27, r27
    1660:	aa 27       	eor	r26, r26
    1662:	62 17       	cp	r22, r18
    1664:	73 07       	cpc	r23, r19
    1666:	84 07       	cpc	r24, r20
    1668:	38 f0       	brcs	.+14     	; 0x1678 <__divsf3_pse+0x26>
    166a:	9f 5f       	subi	r25, 0xFF	; 255
    166c:	5f 4f       	sbci	r21, 0xFF	; 255
    166e:	22 0f       	add	r18, r18
    1670:	33 1f       	adc	r19, r19
    1672:	44 1f       	adc	r20, r20
    1674:	aa 1f       	adc	r26, r26
    1676:	a9 f3       	breq	.-22     	; 0x1662 <__divsf3_pse+0x10>
    1678:	35 d0       	rcall	.+106    	; 0x16e4 <__divsf3_pse+0x92>
    167a:	0e 2e       	mov	r0, r30
    167c:	3a f0       	brmi	.+14     	; 0x168c <__divsf3_pse+0x3a>
    167e:	e0 e8       	ldi	r30, 0x80	; 128
    1680:	32 d0       	rcall	.+100    	; 0x16e6 <__divsf3_pse+0x94>
    1682:	91 50       	subi	r25, 0x01	; 1
    1684:	50 40       	sbci	r21, 0x00	; 0
    1686:	e6 95       	lsr	r30
    1688:	00 1c       	adc	r0, r0
    168a:	ca f7       	brpl	.-14     	; 0x167e <__divsf3_pse+0x2c>
    168c:	2b d0       	rcall	.+86     	; 0x16e4 <__divsf3_pse+0x92>
    168e:	fe 2f       	mov	r31, r30
    1690:	29 d0       	rcall	.+82     	; 0x16e4 <__divsf3_pse+0x92>
    1692:	66 0f       	add	r22, r22
    1694:	77 1f       	adc	r23, r23
    1696:	88 1f       	adc	r24, r24
    1698:	bb 1f       	adc	r27, r27
    169a:	26 17       	cp	r18, r22
    169c:	37 07       	cpc	r19, r23
    169e:	48 07       	cpc	r20, r24
    16a0:	ab 07       	cpc	r26, r27
    16a2:	b0 e8       	ldi	r27, 0x80	; 128
    16a4:	09 f0       	breq	.+2      	; 0x16a8 <__divsf3_pse+0x56>
    16a6:	bb 0b       	sbc	r27, r27
    16a8:	80 2d       	mov	r24, r0
    16aa:	bf 01       	movw	r22, r30
    16ac:	ff 27       	eor	r31, r31
    16ae:	93 58       	subi	r25, 0x83	; 131
    16b0:	5f 4f       	sbci	r21, 0xFF	; 255
    16b2:	3a f0       	brmi	.+14     	; 0x16c2 <__divsf3_pse+0x70>
    16b4:	9e 3f       	cpi	r25, 0xFE	; 254
    16b6:	51 05       	cpc	r21, r1
    16b8:	78 f0       	brcs	.+30     	; 0x16d8 <__divsf3_pse+0x86>
    16ba:	0c 94 f0 0b 	jmp	0x17e0	; 0x17e0 <__fp_inf>
    16be:	0c 94 3b 0c 	jmp	0x1876	; 0x1876 <__fp_szero>
    16c2:	5f 3f       	cpi	r21, 0xFF	; 255
    16c4:	e4 f3       	brlt	.-8      	; 0x16be <__divsf3_pse+0x6c>
    16c6:	98 3e       	cpi	r25, 0xE8	; 232
    16c8:	d4 f3       	brlt	.-12     	; 0x16be <__divsf3_pse+0x6c>
    16ca:	86 95       	lsr	r24
    16cc:	77 95       	ror	r23
    16ce:	67 95       	ror	r22
    16d0:	b7 95       	ror	r27
    16d2:	f7 95       	ror	r31
    16d4:	9f 5f       	subi	r25, 0xFF	; 255
    16d6:	c9 f7       	brne	.-14     	; 0x16ca <__divsf3_pse+0x78>
    16d8:	88 0f       	add	r24, r24
    16da:	91 1d       	adc	r25, r1
    16dc:	96 95       	lsr	r25
    16de:	87 95       	ror	r24
    16e0:	97 f9       	bld	r25, 7
    16e2:	08 95       	ret
    16e4:	e1 e0       	ldi	r30, 0x01	; 1
    16e6:	66 0f       	add	r22, r22
    16e8:	77 1f       	adc	r23, r23
    16ea:	88 1f       	adc	r24, r24
    16ec:	bb 1f       	adc	r27, r27
    16ee:	62 17       	cp	r22, r18
    16f0:	73 07       	cpc	r23, r19
    16f2:	84 07       	cpc	r24, r20
    16f4:	ba 07       	cpc	r27, r26
    16f6:	20 f0       	brcs	.+8      	; 0x1700 <__divsf3_pse+0xae>
    16f8:	62 1b       	sub	r22, r18
    16fa:	73 0b       	sbc	r23, r19
    16fc:	84 0b       	sbc	r24, r20
    16fe:	ba 0b       	sbc	r27, r26
    1700:	ee 1f       	adc	r30, r30
    1702:	88 f7       	brcc	.-30     	; 0x16e6 <__divsf3_pse+0x94>
    1704:	e0 95       	com	r30
    1706:	08 95       	ret

00001708 <__fixunssfsi>:
    1708:	0e 94 20 0c 	call	0x1840	; 0x1840 <__fp_splitA>
    170c:	88 f0       	brcs	.+34     	; 0x1730 <__fixunssfsi+0x28>
    170e:	9f 57       	subi	r25, 0x7F	; 127
    1710:	98 f0       	brcs	.+38     	; 0x1738 <__fixunssfsi+0x30>
    1712:	b9 2f       	mov	r27, r25
    1714:	99 27       	eor	r25, r25
    1716:	b7 51       	subi	r27, 0x17	; 23
    1718:	b0 f0       	brcs	.+44     	; 0x1746 <__fixunssfsi+0x3e>
    171a:	e1 f0       	breq	.+56     	; 0x1754 <__fixunssfsi+0x4c>
    171c:	66 0f       	add	r22, r22
    171e:	77 1f       	adc	r23, r23
    1720:	88 1f       	adc	r24, r24
    1722:	99 1f       	adc	r25, r25
    1724:	1a f0       	brmi	.+6      	; 0x172c <__fixunssfsi+0x24>
    1726:	ba 95       	dec	r27
    1728:	c9 f7       	brne	.-14     	; 0x171c <__fixunssfsi+0x14>
    172a:	14 c0       	rjmp	.+40     	; 0x1754 <__fixunssfsi+0x4c>
    172c:	b1 30       	cpi	r27, 0x01	; 1
    172e:	91 f0       	breq	.+36     	; 0x1754 <__fixunssfsi+0x4c>
    1730:	0e 94 3a 0c 	call	0x1874	; 0x1874 <__fp_zero>
    1734:	b1 e0       	ldi	r27, 0x01	; 1
    1736:	08 95       	ret
    1738:	0c 94 3a 0c 	jmp	0x1874	; 0x1874 <__fp_zero>
    173c:	67 2f       	mov	r22, r23
    173e:	78 2f       	mov	r23, r24
    1740:	88 27       	eor	r24, r24
    1742:	b8 5f       	subi	r27, 0xF8	; 248
    1744:	39 f0       	breq	.+14     	; 0x1754 <__fixunssfsi+0x4c>
    1746:	b9 3f       	cpi	r27, 0xF9	; 249
    1748:	cc f3       	brlt	.-14     	; 0x173c <__fixunssfsi+0x34>
    174a:	86 95       	lsr	r24
    174c:	77 95       	ror	r23
    174e:	67 95       	ror	r22
    1750:	b3 95       	inc	r27
    1752:	d9 f7       	brne	.-10     	; 0x174a <__fixunssfsi+0x42>
    1754:	3e f4       	brtc	.+14     	; 0x1764 <__fixunssfsi+0x5c>
    1756:	90 95       	com	r25
    1758:	80 95       	com	r24
    175a:	70 95       	com	r23
    175c:	61 95       	neg	r22
    175e:	7f 4f       	sbci	r23, 0xFF	; 255
    1760:	8f 4f       	sbci	r24, 0xFF	; 255
    1762:	9f 4f       	sbci	r25, 0xFF	; 255
    1764:	08 95       	ret

00001766 <__floatunsisf>:
    1766:	e8 94       	clt
    1768:	09 c0       	rjmp	.+18     	; 0x177c <__floatsisf+0x12>

0000176a <__floatsisf>:
    176a:	97 fb       	bst	r25, 7
    176c:	3e f4       	brtc	.+14     	; 0x177c <__floatsisf+0x12>
    176e:	90 95       	com	r25
    1770:	80 95       	com	r24
    1772:	70 95       	com	r23
    1774:	61 95       	neg	r22
    1776:	7f 4f       	sbci	r23, 0xFF	; 255
    1778:	8f 4f       	sbci	r24, 0xFF	; 255
    177a:	9f 4f       	sbci	r25, 0xFF	; 255
    177c:	99 23       	and	r25, r25
    177e:	a9 f0       	breq	.+42     	; 0x17aa <__floatsisf+0x40>
    1780:	f9 2f       	mov	r31, r25
    1782:	96 e9       	ldi	r25, 0x96	; 150
    1784:	bb 27       	eor	r27, r27
    1786:	93 95       	inc	r25
    1788:	f6 95       	lsr	r31
    178a:	87 95       	ror	r24
    178c:	77 95       	ror	r23
    178e:	67 95       	ror	r22
    1790:	b7 95       	ror	r27
    1792:	f1 11       	cpse	r31, r1
    1794:	f8 cf       	rjmp	.-16     	; 0x1786 <__floatsisf+0x1c>
    1796:	fa f4       	brpl	.+62     	; 0x17d6 <__floatsisf+0x6c>
    1798:	bb 0f       	add	r27, r27
    179a:	11 f4       	brne	.+4      	; 0x17a0 <__floatsisf+0x36>
    179c:	60 ff       	sbrs	r22, 0
    179e:	1b c0       	rjmp	.+54     	; 0x17d6 <__floatsisf+0x6c>
    17a0:	6f 5f       	subi	r22, 0xFF	; 255
    17a2:	7f 4f       	sbci	r23, 0xFF	; 255
    17a4:	8f 4f       	sbci	r24, 0xFF	; 255
    17a6:	9f 4f       	sbci	r25, 0xFF	; 255
    17a8:	16 c0       	rjmp	.+44     	; 0x17d6 <__floatsisf+0x6c>
    17aa:	88 23       	and	r24, r24
    17ac:	11 f0       	breq	.+4      	; 0x17b2 <__floatsisf+0x48>
    17ae:	96 e9       	ldi	r25, 0x96	; 150
    17b0:	11 c0       	rjmp	.+34     	; 0x17d4 <__floatsisf+0x6a>
    17b2:	77 23       	and	r23, r23
    17b4:	21 f0       	breq	.+8      	; 0x17be <__floatsisf+0x54>
    17b6:	9e e8       	ldi	r25, 0x8E	; 142
    17b8:	87 2f       	mov	r24, r23
    17ba:	76 2f       	mov	r23, r22
    17bc:	05 c0       	rjmp	.+10     	; 0x17c8 <__floatsisf+0x5e>
    17be:	66 23       	and	r22, r22
    17c0:	71 f0       	breq	.+28     	; 0x17de <__floatsisf+0x74>
    17c2:	96 e8       	ldi	r25, 0x86	; 134
    17c4:	86 2f       	mov	r24, r22
    17c6:	70 e0       	ldi	r23, 0x00	; 0
    17c8:	60 e0       	ldi	r22, 0x00	; 0
    17ca:	2a f0       	brmi	.+10     	; 0x17d6 <__floatsisf+0x6c>
    17cc:	9a 95       	dec	r25
    17ce:	66 0f       	add	r22, r22
    17d0:	77 1f       	adc	r23, r23
    17d2:	88 1f       	adc	r24, r24
    17d4:	da f7       	brpl	.-10     	; 0x17cc <__floatsisf+0x62>
    17d6:	88 0f       	add	r24, r24
    17d8:	96 95       	lsr	r25
    17da:	87 95       	ror	r24
    17dc:	97 f9       	bld	r25, 7
    17de:	08 95       	ret

000017e0 <__fp_inf>:
    17e0:	97 f9       	bld	r25, 7
    17e2:	9f 67       	ori	r25, 0x7F	; 127
    17e4:	80 e8       	ldi	r24, 0x80	; 128
    17e6:	70 e0       	ldi	r23, 0x00	; 0
    17e8:	60 e0       	ldi	r22, 0x00	; 0
    17ea:	08 95       	ret

000017ec <__fp_nan>:
    17ec:	9f ef       	ldi	r25, 0xFF	; 255
    17ee:	80 ec       	ldi	r24, 0xC0	; 192
    17f0:	08 95       	ret

000017f2 <__fp_pscA>:
    17f2:	00 24       	eor	r0, r0
    17f4:	0a 94       	dec	r0
    17f6:	16 16       	cp	r1, r22
    17f8:	17 06       	cpc	r1, r23
    17fa:	18 06       	cpc	r1, r24
    17fc:	09 06       	cpc	r0, r25
    17fe:	08 95       	ret

00001800 <__fp_pscB>:
    1800:	00 24       	eor	r0, r0
    1802:	0a 94       	dec	r0
    1804:	12 16       	cp	r1, r18
    1806:	13 06       	cpc	r1, r19
    1808:	14 06       	cpc	r1, r20
    180a:	05 06       	cpc	r0, r21
    180c:	08 95       	ret

0000180e <__fp_round>:
    180e:	09 2e       	mov	r0, r25
    1810:	03 94       	inc	r0
    1812:	00 0c       	add	r0, r0
    1814:	11 f4       	brne	.+4      	; 0x181a <__fp_round+0xc>
    1816:	88 23       	and	r24, r24
    1818:	52 f0       	brmi	.+20     	; 0x182e <__fp_round+0x20>
    181a:	bb 0f       	add	r27, r27
    181c:	40 f4       	brcc	.+16     	; 0x182e <__fp_round+0x20>
    181e:	bf 2b       	or	r27, r31
    1820:	11 f4       	brne	.+4      	; 0x1826 <__fp_round+0x18>
    1822:	60 ff       	sbrs	r22, 0
    1824:	04 c0       	rjmp	.+8      	; 0x182e <__fp_round+0x20>
    1826:	6f 5f       	subi	r22, 0xFF	; 255
    1828:	7f 4f       	sbci	r23, 0xFF	; 255
    182a:	8f 4f       	sbci	r24, 0xFF	; 255
    182c:	9f 4f       	sbci	r25, 0xFF	; 255
    182e:	08 95       	ret

00001830 <__fp_split3>:
    1830:	57 fd       	sbrc	r21, 7
    1832:	90 58       	subi	r25, 0x80	; 128
    1834:	44 0f       	add	r20, r20
    1836:	55 1f       	adc	r21, r21
    1838:	59 f0       	breq	.+22     	; 0x1850 <__fp_splitA+0x10>
    183a:	5f 3f       	cpi	r21, 0xFF	; 255
    183c:	71 f0       	breq	.+28     	; 0x185a <__fp_splitA+0x1a>
    183e:	47 95       	ror	r20

00001840 <__fp_splitA>:
    1840:	88 0f       	add	r24, r24
    1842:	97 fb       	bst	r25, 7
    1844:	99 1f       	adc	r25, r25
    1846:	61 f0       	breq	.+24     	; 0x1860 <__fp_splitA+0x20>
    1848:	9f 3f       	cpi	r25, 0xFF	; 255
    184a:	79 f0       	breq	.+30     	; 0x186a <__fp_splitA+0x2a>
    184c:	87 95       	ror	r24
    184e:	08 95       	ret
    1850:	12 16       	cp	r1, r18
    1852:	13 06       	cpc	r1, r19
    1854:	14 06       	cpc	r1, r20
    1856:	55 1f       	adc	r21, r21
    1858:	f2 cf       	rjmp	.-28     	; 0x183e <__fp_split3+0xe>
    185a:	46 95       	lsr	r20
    185c:	f1 df       	rcall	.-30     	; 0x1840 <__fp_splitA>
    185e:	08 c0       	rjmp	.+16     	; 0x1870 <__fp_splitA+0x30>
    1860:	16 16       	cp	r1, r22
    1862:	17 06       	cpc	r1, r23
    1864:	18 06       	cpc	r1, r24
    1866:	99 1f       	adc	r25, r25
    1868:	f1 cf       	rjmp	.-30     	; 0x184c <__fp_splitA+0xc>
    186a:	86 95       	lsr	r24
    186c:	71 05       	cpc	r23, r1
    186e:	61 05       	cpc	r22, r1
    1870:	08 94       	sec
    1872:	08 95       	ret

00001874 <__fp_zero>:
    1874:	e8 94       	clt

00001876 <__fp_szero>:
    1876:	bb 27       	eor	r27, r27
    1878:	66 27       	eor	r22, r22
    187a:	77 27       	eor	r23, r23
    187c:	cb 01       	movw	r24, r22
    187e:	97 f9       	bld	r25, 7
    1880:	08 95       	ret

00001882 <__gesf2>:
    1882:	0e 94 b3 0c 	call	0x1966	; 0x1966 <__fp_cmp>
    1886:	08 f4       	brcc	.+2      	; 0x188a <__gesf2+0x8>
    1888:	8f ef       	ldi	r24, 0xFF	; 255
    188a:	08 95       	ret

0000188c <__mulsf3>:
    188c:	0e 94 59 0c 	call	0x18b2	; 0x18b2 <__mulsf3x>
    1890:	0c 94 07 0c 	jmp	0x180e	; 0x180e <__fp_round>
    1894:	0e 94 f9 0b 	call	0x17f2	; 0x17f2 <__fp_pscA>
    1898:	38 f0       	brcs	.+14     	; 0x18a8 <__mulsf3+0x1c>
    189a:	0e 94 00 0c 	call	0x1800	; 0x1800 <__fp_pscB>
    189e:	20 f0       	brcs	.+8      	; 0x18a8 <__mulsf3+0x1c>
    18a0:	95 23       	and	r25, r21
    18a2:	11 f0       	breq	.+4      	; 0x18a8 <__mulsf3+0x1c>
    18a4:	0c 94 f0 0b 	jmp	0x17e0	; 0x17e0 <__fp_inf>
    18a8:	0c 94 f6 0b 	jmp	0x17ec	; 0x17ec <__fp_nan>
    18ac:	11 24       	eor	r1, r1
    18ae:	0c 94 3b 0c 	jmp	0x1876	; 0x1876 <__fp_szero>

000018b2 <__mulsf3x>:
    18b2:	0e 94 18 0c 	call	0x1830	; 0x1830 <__fp_split3>
    18b6:	70 f3       	brcs	.-36     	; 0x1894 <__mulsf3+0x8>

000018b8 <__mulsf3_pse>:
    18b8:	95 9f       	mul	r25, r21
    18ba:	c1 f3       	breq	.-16     	; 0x18ac <__mulsf3+0x20>
    18bc:	95 0f       	add	r25, r21
    18be:	50 e0       	ldi	r21, 0x00	; 0
    18c0:	55 1f       	adc	r21, r21
    18c2:	62 9f       	mul	r22, r18
    18c4:	f0 01       	movw	r30, r0
    18c6:	72 9f       	mul	r23, r18
    18c8:	bb 27       	eor	r27, r27
    18ca:	f0 0d       	add	r31, r0
    18cc:	b1 1d       	adc	r27, r1
    18ce:	63 9f       	mul	r22, r19
    18d0:	aa 27       	eor	r26, r26
    18d2:	f0 0d       	add	r31, r0
    18d4:	b1 1d       	adc	r27, r1
    18d6:	aa 1f       	adc	r26, r26
    18d8:	64 9f       	mul	r22, r20
    18da:	66 27       	eor	r22, r22
    18dc:	b0 0d       	add	r27, r0
    18de:	a1 1d       	adc	r26, r1
    18e0:	66 1f       	adc	r22, r22
    18e2:	82 9f       	mul	r24, r18
    18e4:	22 27       	eor	r18, r18
    18e6:	b0 0d       	add	r27, r0
    18e8:	a1 1d       	adc	r26, r1
    18ea:	62 1f       	adc	r22, r18
    18ec:	73 9f       	mul	r23, r19
    18ee:	b0 0d       	add	r27, r0
    18f0:	a1 1d       	adc	r26, r1
    18f2:	62 1f       	adc	r22, r18
    18f4:	83 9f       	mul	r24, r19
    18f6:	a0 0d       	add	r26, r0
    18f8:	61 1d       	adc	r22, r1
    18fa:	22 1f       	adc	r18, r18
    18fc:	74 9f       	mul	r23, r20
    18fe:	33 27       	eor	r19, r19
    1900:	a0 0d       	add	r26, r0
    1902:	61 1d       	adc	r22, r1
    1904:	23 1f       	adc	r18, r19
    1906:	84 9f       	mul	r24, r20
    1908:	60 0d       	add	r22, r0
    190a:	21 1d       	adc	r18, r1
    190c:	82 2f       	mov	r24, r18
    190e:	76 2f       	mov	r23, r22
    1910:	6a 2f       	mov	r22, r26
    1912:	11 24       	eor	r1, r1
    1914:	9f 57       	subi	r25, 0x7F	; 127
    1916:	50 40       	sbci	r21, 0x00	; 0
    1918:	9a f0       	brmi	.+38     	; 0x1940 <__mulsf3_pse+0x88>
    191a:	f1 f0       	breq	.+60     	; 0x1958 <__mulsf3_pse+0xa0>
    191c:	88 23       	and	r24, r24
    191e:	4a f0       	brmi	.+18     	; 0x1932 <__mulsf3_pse+0x7a>
    1920:	ee 0f       	add	r30, r30
    1922:	ff 1f       	adc	r31, r31
    1924:	bb 1f       	adc	r27, r27
    1926:	66 1f       	adc	r22, r22
    1928:	77 1f       	adc	r23, r23
    192a:	88 1f       	adc	r24, r24
    192c:	91 50       	subi	r25, 0x01	; 1
    192e:	50 40       	sbci	r21, 0x00	; 0
    1930:	a9 f7       	brne	.-22     	; 0x191c <__mulsf3_pse+0x64>
    1932:	9e 3f       	cpi	r25, 0xFE	; 254
    1934:	51 05       	cpc	r21, r1
    1936:	80 f0       	brcs	.+32     	; 0x1958 <__mulsf3_pse+0xa0>
    1938:	0c 94 f0 0b 	jmp	0x17e0	; 0x17e0 <__fp_inf>
    193c:	0c 94 3b 0c 	jmp	0x1876	; 0x1876 <__fp_szero>
    1940:	5f 3f       	cpi	r21, 0xFF	; 255
    1942:	e4 f3       	brlt	.-8      	; 0x193c <__mulsf3_pse+0x84>
    1944:	98 3e       	cpi	r25, 0xE8	; 232
    1946:	d4 f3       	brlt	.-12     	; 0x193c <__mulsf3_pse+0x84>
    1948:	86 95       	lsr	r24
    194a:	77 95       	ror	r23
    194c:	67 95       	ror	r22
    194e:	b7 95       	ror	r27
    1950:	f7 95       	ror	r31
    1952:	e7 95       	ror	r30
    1954:	9f 5f       	subi	r25, 0xFF	; 255
    1956:	c1 f7       	brne	.-16     	; 0x1948 <__mulsf3_pse+0x90>
    1958:	fe 2b       	or	r31, r30
    195a:	88 0f       	add	r24, r24
    195c:	91 1d       	adc	r25, r1
    195e:	96 95       	lsr	r25
    1960:	87 95       	ror	r24
    1962:	97 f9       	bld	r25, 7
    1964:	08 95       	ret

00001966 <__fp_cmp>:
    1966:	99 0f       	add	r25, r25
    1968:	00 08       	sbc	r0, r0
    196a:	55 0f       	add	r21, r21
    196c:	aa 0b       	sbc	r26, r26
    196e:	e0 e8       	ldi	r30, 0x80	; 128
    1970:	fe ef       	ldi	r31, 0xFE	; 254
    1972:	16 16       	cp	r1, r22
    1974:	17 06       	cpc	r1, r23
    1976:	e8 07       	cpc	r30, r24
    1978:	f9 07       	cpc	r31, r25
    197a:	c0 f0       	brcs	.+48     	; 0x19ac <__fp_cmp+0x46>
    197c:	12 16       	cp	r1, r18
    197e:	13 06       	cpc	r1, r19
    1980:	e4 07       	cpc	r30, r20
    1982:	f5 07       	cpc	r31, r21
    1984:	98 f0       	brcs	.+38     	; 0x19ac <__fp_cmp+0x46>
    1986:	62 1b       	sub	r22, r18
    1988:	73 0b       	sbc	r23, r19
    198a:	84 0b       	sbc	r24, r20
    198c:	95 0b       	sbc	r25, r21
    198e:	39 f4       	brne	.+14     	; 0x199e <__fp_cmp+0x38>
    1990:	0a 26       	eor	r0, r26
    1992:	61 f0       	breq	.+24     	; 0x19ac <__fp_cmp+0x46>
    1994:	23 2b       	or	r18, r19
    1996:	24 2b       	or	r18, r20
    1998:	25 2b       	or	r18, r21
    199a:	21 f4       	brne	.+8      	; 0x19a4 <__fp_cmp+0x3e>
    199c:	08 95       	ret
    199e:	0a 26       	eor	r0, r26
    19a0:	09 f4       	brne	.+2      	; 0x19a4 <__fp_cmp+0x3e>
    19a2:	a1 40       	sbci	r26, 0x01	; 1
    19a4:	a6 95       	lsr	r26
    19a6:	8f ef       	ldi	r24, 0xFF	; 255
    19a8:	81 1d       	adc	r24, r1
    19aa:	81 1d       	adc	r24, r1
    19ac:	08 95       	ret

000019ae <do_rand>:
    19ae:	8f 92       	push	r8
    19b0:	9f 92       	push	r9
    19b2:	af 92       	push	r10
    19b4:	bf 92       	push	r11
    19b6:	cf 92       	push	r12
    19b8:	df 92       	push	r13
    19ba:	ef 92       	push	r14
    19bc:	ff 92       	push	r15
    19be:	cf 93       	push	r28
    19c0:	df 93       	push	r29
    19c2:	ec 01       	movw	r28, r24
    19c4:	68 81       	ld	r22, Y
    19c6:	79 81       	ldd	r23, Y+1	; 0x01
    19c8:	8a 81       	ldd	r24, Y+2	; 0x02
    19ca:	9b 81       	ldd	r25, Y+3	; 0x03
    19cc:	61 15       	cp	r22, r1
    19ce:	71 05       	cpc	r23, r1
    19d0:	81 05       	cpc	r24, r1
    19d2:	91 05       	cpc	r25, r1
    19d4:	21 f4       	brne	.+8      	; 0x19de <do_rand+0x30>
    19d6:	64 e2       	ldi	r22, 0x24	; 36
    19d8:	79 ed       	ldi	r23, 0xD9	; 217
    19da:	8b e5       	ldi	r24, 0x5B	; 91
    19dc:	97 e0       	ldi	r25, 0x07	; 7
    19de:	2d e1       	ldi	r18, 0x1D	; 29
    19e0:	33 ef       	ldi	r19, 0xF3	; 243
    19e2:	41 e0       	ldi	r20, 0x01	; 1
    19e4:	50 e0       	ldi	r21, 0x00	; 0
    19e6:	0e 94 72 0a 	call	0x14e4	; 0x14e4 <__divmodsi4>
    19ea:	49 01       	movw	r8, r18
    19ec:	5a 01       	movw	r10, r20
    19ee:	9b 01       	movw	r18, r22
    19f0:	ac 01       	movw	r20, r24
    19f2:	a7 ea       	ldi	r26, 0xA7	; 167
    19f4:	b1 e4       	ldi	r27, 0x41	; 65
    19f6:	0e 94 71 0d 	call	0x1ae2	; 0x1ae2 <__muluhisi3>
    19fa:	6b 01       	movw	r12, r22
    19fc:	7c 01       	movw	r14, r24
    19fe:	ac ee       	ldi	r26, 0xEC	; 236
    1a00:	b4 ef       	ldi	r27, 0xF4	; 244
    1a02:	a5 01       	movw	r20, r10
    1a04:	94 01       	movw	r18, r8
    1a06:	0e 94 7f 0d 	call	0x1afe	; 0x1afe <__mulohisi3>
    1a0a:	dc 01       	movw	r26, r24
    1a0c:	cb 01       	movw	r24, r22
    1a0e:	8c 0d       	add	r24, r12
    1a10:	9d 1d       	adc	r25, r13
    1a12:	ae 1d       	adc	r26, r14
    1a14:	bf 1d       	adc	r27, r15
    1a16:	b7 ff       	sbrs	r27, 7
    1a18:	03 c0       	rjmp	.+6      	; 0x1a20 <do_rand+0x72>
    1a1a:	01 97       	sbiw	r24, 0x01	; 1
    1a1c:	a1 09       	sbc	r26, r1
    1a1e:	b0 48       	sbci	r27, 0x80	; 128
    1a20:	88 83       	st	Y, r24
    1a22:	99 83       	std	Y+1, r25	; 0x01
    1a24:	aa 83       	std	Y+2, r26	; 0x02
    1a26:	bb 83       	std	Y+3, r27	; 0x03
    1a28:	9f 77       	andi	r25, 0x7F	; 127
    1a2a:	df 91       	pop	r29
    1a2c:	cf 91       	pop	r28
    1a2e:	ff 90       	pop	r15
    1a30:	ef 90       	pop	r14
    1a32:	df 90       	pop	r13
    1a34:	cf 90       	pop	r12
    1a36:	bf 90       	pop	r11
    1a38:	af 90       	pop	r10
    1a3a:	9f 90       	pop	r9
    1a3c:	8f 90       	pop	r8
    1a3e:	08 95       	ret

00001a40 <rand_r>:
    1a40:	0e 94 d7 0c 	call	0x19ae	; 0x19ae <do_rand>
    1a44:	08 95       	ret

00001a46 <rand>:
    1a46:	80 e0       	ldi	r24, 0x00	; 0
    1a48:	91 e0       	ldi	r25, 0x01	; 1
    1a4a:	0e 94 d7 0c 	call	0x19ae	; 0x19ae <do_rand>
    1a4e:	08 95       	ret

00001a50 <srand>:
    1a50:	a0 e0       	ldi	r26, 0x00	; 0
    1a52:	b0 e0       	ldi	r27, 0x00	; 0
    1a54:	80 93 00 01 	sts	0x0100, r24	; 0x800100 <__data_start>
    1a58:	90 93 01 01 	sts	0x0101, r25	; 0x800101 <__data_start+0x1>
    1a5c:	a0 93 02 01 	sts	0x0102, r26	; 0x800102 <__data_start+0x2>
    1a60:	b0 93 03 01 	sts	0x0103, r27	; 0x800103 <__data_start+0x3>
    1a64:	08 95       	ret

00001a66 <memcpy_P>:
    1a66:	fb 01       	movw	r30, r22
    1a68:	dc 01       	movw	r26, r24
    1a6a:	02 c0       	rjmp	.+4      	; 0x1a70 <memcpy_P+0xa>
    1a6c:	05 90       	lpm	r0, Z+
    1a6e:	0d 92       	st	X+, r0
    1a70:	41 50       	subi	r20, 0x01	; 1
    1a72:	50 40       	sbci	r21, 0x00	; 0
    1a74:	d8 f7       	brcc	.-10     	; 0x1a6c <memcpy_P+0x6>
    1a76:	08 95       	ret

00001a78 <__itoa_ncheck>:
    1a78:	bb 27       	eor	r27, r27
    1a7a:	4a 30       	cpi	r20, 0x0A	; 10
    1a7c:	31 f4       	brne	.+12     	; 0x1a8a <__itoa_ncheck+0x12>
    1a7e:	99 23       	and	r25, r25
    1a80:	22 f4       	brpl	.+8      	; 0x1a8a <__itoa_ncheck+0x12>
    1a82:	bd e2       	ldi	r27, 0x2D	; 45
    1a84:	90 95       	com	r25
    1a86:	81 95       	neg	r24
    1a88:	9f 4f       	sbci	r25, 0xFF	; 255
    1a8a:	0c 94 48 0d 	jmp	0x1a90	; 0x1a90 <__utoa_common>

00001a8e <__utoa_ncheck>:
    1a8e:	bb 27       	eor	r27, r27

00001a90 <__utoa_common>:
    1a90:	fb 01       	movw	r30, r22
    1a92:	55 27       	eor	r21, r21
    1a94:	aa 27       	eor	r26, r26
    1a96:	88 0f       	add	r24, r24
    1a98:	99 1f       	adc	r25, r25
    1a9a:	aa 1f       	adc	r26, r26
    1a9c:	a4 17       	cp	r26, r20
    1a9e:	10 f0       	brcs	.+4      	; 0x1aa4 <__utoa_common+0x14>
    1aa0:	a4 1b       	sub	r26, r20
    1aa2:	83 95       	inc	r24
    1aa4:	50 51       	subi	r21, 0x10	; 16
    1aa6:	b9 f7       	brne	.-18     	; 0x1a96 <__utoa_common+0x6>
    1aa8:	a0 5d       	subi	r26, 0xD0	; 208
    1aaa:	aa 33       	cpi	r26, 0x3A	; 58
    1aac:	08 f0       	brcs	.+2      	; 0x1ab0 <__utoa_common+0x20>
    1aae:	a9 5d       	subi	r26, 0xD9	; 217
    1ab0:	a1 93       	st	Z+, r26
    1ab2:	00 97       	sbiw	r24, 0x00	; 0
    1ab4:	79 f7       	brne	.-34     	; 0x1a94 <__utoa_common+0x4>
    1ab6:	b1 11       	cpse	r27, r1
    1ab8:	b1 93       	st	Z+, r27
    1aba:	11 92       	st	Z+, r1
    1abc:	cb 01       	movw	r24, r22
    1abe:	0c 94 61 0d 	jmp	0x1ac2	; 0x1ac2 <strrev>

00001ac2 <strrev>:
    1ac2:	dc 01       	movw	r26, r24
    1ac4:	fc 01       	movw	r30, r24
    1ac6:	67 2f       	mov	r22, r23
    1ac8:	71 91       	ld	r23, Z+
    1aca:	77 23       	and	r23, r23
    1acc:	e1 f7       	brne	.-8      	; 0x1ac6 <strrev+0x4>
    1ace:	32 97       	sbiw	r30, 0x02	; 2
    1ad0:	04 c0       	rjmp	.+8      	; 0x1ada <strrev+0x18>
    1ad2:	7c 91       	ld	r23, X
    1ad4:	6d 93       	st	X+, r22
    1ad6:	70 83       	st	Z, r23
    1ad8:	62 91       	ld	r22, -Z
    1ada:	ae 17       	cp	r26, r30
    1adc:	bf 07       	cpc	r27, r31
    1ade:	c8 f3       	brcs	.-14     	; 0x1ad2 <strrev+0x10>
    1ae0:	08 95       	ret

00001ae2 <__muluhisi3>:
    1ae2:	0e 94 84 0d 	call	0x1b08	; 0x1b08 <__umulhisi3>
    1ae6:	a5 9f       	mul	r26, r21
    1ae8:	90 0d       	add	r25, r0
    1aea:	b4 9f       	mul	r27, r20
    1aec:	90 0d       	add	r25, r0
    1aee:	a4 9f       	mul	r26, r20
    1af0:	80 0d       	add	r24, r0
    1af2:	91 1d       	adc	r25, r1
    1af4:	11 24       	eor	r1, r1
    1af6:	08 95       	ret

00001af8 <__mulshisi3>:
    1af8:	b7 ff       	sbrs	r27, 7
    1afa:	0c 94 71 0d 	jmp	0x1ae2	; 0x1ae2 <__muluhisi3>

00001afe <__mulohisi3>:
    1afe:	0e 94 71 0d 	call	0x1ae2	; 0x1ae2 <__muluhisi3>
    1b02:	82 1b       	sub	r24, r18
    1b04:	93 0b       	sbc	r25, r19
    1b06:	08 95       	ret

00001b08 <__umulhisi3>:
    1b08:	a2 9f       	mul	r26, r18
    1b0a:	b0 01       	movw	r22, r0
    1b0c:	b3 9f       	mul	r27, r19
    1b0e:	c0 01       	movw	r24, r0
    1b10:	a3 9f       	mul	r26, r19
    1b12:	70 0d       	add	r23, r0
    1b14:	81 1d       	adc	r24, r1
    1b16:	11 24       	eor	r1, r1
    1b18:	91 1d       	adc	r25, r1
    1b1a:	b2 9f       	mul	r27, r18
    1b1c:	70 0d       	add	r23, r0
    1b1e:	81 1d       	adc	r24, r1
    1b20:	11 24       	eor	r1, r1
    1b22:	91 1d       	adc	r25, r1
    1b24:	08 95       	ret

00001b26 <_exit>:
    1b26:	f8 94       	cli

00001b28 <__stop_program>:
    1b28:	ff cf       	rjmp	.-2      	; 0x1b28 <__stop_program>
