
code.elf:     file format elf32-avr


Disassembly of section .text:

00000000 <__vectors>:
       0:	0c 94 24 01 	jmp	0x248	; 0x248 <__ctors_end>
       4:	0c 94 41 01 	jmp	0x282	; 0x282 <__bad_interrupt>
       8:	0c 94 41 01 	jmp	0x282	; 0x282 <__bad_interrupt>
       c:	0c 94 41 01 	jmp	0x282	; 0x282 <__bad_interrupt>
      10:	0c 94 41 01 	jmp	0x282	; 0x282 <__bad_interrupt>
      14:	0c 94 a0 03 	jmp	0x740	; 0x740 <__vector_5>
      18:	0c 94 41 01 	jmp	0x282	; 0x282 <__bad_interrupt>
      1c:	0c 94 41 01 	jmp	0x282	; 0x282 <__bad_interrupt>
      20:	0c 94 41 01 	jmp	0x282	; 0x282 <__bad_interrupt>
      24:	0c 94 41 01 	jmp	0x282	; 0x282 <__bad_interrupt>
      28:	0c 94 41 01 	jmp	0x282	; 0x282 <__bad_interrupt>
      2c:	0c 94 6a 03 	jmp	0x6d4	; 0x6d4 <__vector_11>
      30:	0c 94 41 01 	jmp	0x282	; 0x282 <__bad_interrupt>
      34:	0c 94 41 01 	jmp	0x282	; 0x282 <__bad_interrupt>
      38:	0c 94 41 01 	jmp	0x282	; 0x282 <__bad_interrupt>
      3c:	0c 94 41 01 	jmp	0x282	; 0x282 <__bad_interrupt>
      40:	0c 94 41 01 	jmp	0x282	; 0x282 <__bad_interrupt>
      44:	0c 94 41 01 	jmp	0x282	; 0x282 <__bad_interrupt>
      48:	0c 94 41 01 	jmp	0x282	; 0x282 <__bad_interrupt>
      4c:	0c 94 41 01 	jmp	0x282	; 0x282 <__bad_interrupt>
      50:	0c 94 41 01 	jmp	0x282	; 0x282 <__bad_interrupt>
      54:	0c 94 41 01 	jmp	0x282	; 0x282 <__bad_interrupt>
      58:	0c 94 41 01 	jmp	0x282	; 0x282 <__bad_interrupt>
      5c:	0c 94 41 01 	jmp	0x282	; 0x282 <__bad_interrupt>
      60:	0c 94 41 01 	jmp	0x282	; 0x282 <__bad_interrupt>
      64:	0c 94 41 01 	jmp	0x282	; 0x282 <__bad_interrupt>

00000068 <CHARSET>:
      68:	00 00 00 00 00 00 00 5f 00 00 00 07 00 07 00 14     ......._........
      78:	7f 14 7f 14 24 2a 7f 2a 12 23 13 08 64 62 36 49     ....$*.*.#..db6I
      88:	55 22 50 00 05 03 00 00 00 1c 22 41 00 00 41 22     U"P......."A..A"
      98:	1c 00 14 08 3e 08 14 08 08 3e 08 08 00 50 30 00     ....>....>...P0.
      a8:	00 08 08 08 08 08 00 60 60 00 00 20 10 08 04 02     .......``.. ....
      b8:	3e 51 49 45 3e 00 42 7f 40 00 42 61 51 49 46 21     >QIE>.B.@.BaQIF!
      c8:	41 45 4b 31 18 14 12 7f 10 27 45 45 45 39 3c 4a     AEK1.....'EEE9<J
      d8:	49 49 30 01 71 09 05 03 36 49 49 49 36 06 49 49     II0.q...6III6.II
      e8:	29 1e 00 36 36 00 00 00 56 36 00 00 08 14 22 41     )..66...V6...."A
      f8:	00 14 14 14 14 14 00 41 22 14 08 02 01 51 09 06     .......A"....Q..
     108:	32 49 79 41 3e 7e 11 11 11 7e 7f 49 49 49 36 3e     2IyA>~...~.III6>
     118:	41 41 41 22 7f 41 41 22 1c 7f 49 49 49 41 7f 09     AAA".AA"..IIIA..
     128:	09 09 01 3e 41 49 49 7a 7f 08 08 08 7f 00 41 7f     ...>AIIz......A.
     138:	41 00 20 40 41 3f 01 7f 08 14 22 41 7f 40 40 40     A. @A?...."A.@@@
     148:	40 7f 02 0c 02 7f 7f 04 08 10 7f 3e 41 41 41 3e     @..........>AAA>
     158:	7f 09 09 09 06 3e 41 51 21 5e 7f 09 19 29 46 46     .....>AQ!^...)FF
     168:	49 49 49 31 01 01 7f 01 01 3f 40 40 40 3f 1f 20     III1.....?@@@?. 
     178:	40 20 1f 3f 40 38 40 3f 63 14 08 14 63 07 08 70     @ .?@8@?c...c..p
     188:	08 07 61 51 49 45 43 00 7f 41 41 00 02 04 08 10     ..aQIEC..AA.....
     198:	20 00 41 41 7f 00 04 02 01 02 04 40 40 40 40 40      .AA.......@@@@@
     1a8:	00 01 02 04 00 20 54 54 54 78 7f 48 44 44 38 38     ..... TTTx.HDD88
     1b8:	44 44 44 20 38 44 44 48 7f 38 54 54 54 18 08 7e     DDD 8DDH.8TTT..~
     1c8:	09 01 02 0c 52 52 52 3e 7f 08 04 04 78 00 44 7d     ....RRR>....x.D}
     1d8:	40 00 20 40 44 3d 00 7f 10 28 44 00 00 41 7f 40     @. @D=...(D..A.@
     1e8:	00 7c 04 18 04 78 7c 08 04 04 78 38 44 44 44 38     .|...x|...x8DDD8
     1f8:	7c 14 14 14 08 08 14 14 18 7c 7c 08 04 04 08 48     |........||....H
     208:	54 54 54 20 04 3f 44 40 20 3c 40 40 20 7c 1c 20     TTT .?D@ <@@ |. 
     218:	40 20 1c 3c 40 30 40 3c 44 28 10 28 44 0c 50 50     @ .<@0@<D(.(D.PP
     228:	50 3c 44 64 54 4c 44 00 08 36 41 00 00 00 7f 00     P<DdTLD..6A.....
     238:	00 00 41 36 08 00 10 08 08 10 08 00 00 00 00 00     ..A6............

00000248 <__ctors_end>:
     248:	11 24       	eor	r1, r1
     24a:	1f be       	out	0x3f, r1	; 63
     24c:	cf ef       	ldi	r28, 0xFF	; 255
     24e:	d8 e0       	ldi	r29, 0x08	; 8
     250:	de bf       	out	0x3e, r29	; 62
     252:	cd bf       	out	0x3d, r28	; 61

00000254 <__do_copy_data>:
     254:	11 e0       	ldi	r17, 0x01	; 1
     256:	a0 e0       	ldi	r26, 0x00	; 0
     258:	b1 e0       	ldi	r27, 0x01	; 1
     25a:	ec e0       	ldi	r30, 0x0C	; 12
     25c:	f4 e1       	ldi	r31, 0x14	; 20
     25e:	02 c0       	rjmp	.+4      	; 0x264 <__do_copy_data+0x10>
     260:	05 90       	lpm	r0, Z+
     262:	0d 92       	st	X+, r0
     264:	aa 31       	cpi	r26, 0x1A	; 26
     266:	b1 07       	cpc	r27, r17
     268:	d9 f7       	brne	.-10     	; 0x260 <__do_copy_data+0xc>

0000026a <__do_clear_bss>:
     26a:	23 e0       	ldi	r18, 0x03	; 3
     26c:	aa e1       	ldi	r26, 0x1A	; 26
     26e:	b1 e0       	ldi	r27, 0x01	; 1
     270:	01 c0       	rjmp	.+2      	; 0x274 <.do_clear_bss_start>

00000272 <.do_clear_bss_loop>:
     272:	1d 92       	st	X+, r1

00000274 <.do_clear_bss_start>:
     274:	a4 38       	cpi	r26, 0x84	; 132
     276:	b2 07       	cpc	r27, r18
     278:	e1 f7       	brne	.-8      	; 0x272 <.do_clear_bss_loop>
     27a:	0e 94 df 06 	call	0xdbe	; 0xdbe <main>
     27e:	0c 94 04 0a 	jmp	0x1408	; 0x1408 <_exit>

00000282 <__bad_interrupt>:
     282:	0c 94 00 00 	jmp	0	; 0x0 <__vectors>

00000286 <sortSecret>:
     286:	0f 93       	push	r16
     288:	1f 93       	push	r17
     28a:	cf 93       	push	r28
     28c:	df 93       	push	r29
     28e:	80 91 1c 01 	lds	r24, 0x011C	; 0x80011c <randomParam>
     292:	90 91 1d 01 	lds	r25, 0x011D	; 0x80011d <randomParam+0x1>
     296:	0e 94 58 09 	call	0x12b0	; 0x12b0 <srand>
     29a:	c4 e3       	ldi	r28, 0x34	; 52
     29c:	d3 e0       	ldi	r29, 0x03	; 3
     29e:	0a e0       	ldi	r16, 0x0A	; 10
     2a0:	10 e0       	ldi	r17, 0x00	; 0
     2a2:	0e 94 53 09 	call	0x12a6	; 0x12a6 <rand>
     2a6:	b8 01       	movw	r22, r16
     2a8:	0e 94 1a 07 	call	0xe34	; 0xe34 <__divmodhi4>
     2ac:	89 93       	st	Y+, r24
     2ae:	99 93       	st	Y+, r25
     2b0:	83 e0       	ldi	r24, 0x03	; 3
     2b2:	cc 33       	cpi	r28, 0x3C	; 60
     2b4:	d8 07       	cpc	r29, r24
     2b6:	a9 f7       	brne	.-22     	; 0x2a2 <sortSecret+0x1c>
     2b8:	df 91       	pop	r29
     2ba:	cf 91       	pop	r28
     2bc:	1f 91       	pop	r17
     2be:	0f 91       	pop	r16
     2c0:	08 95       	ret

000002c2 <nextDigit>:
     2c2:	80 91 1a 01 	lds	r24, 0x011A	; 0x80011a <__data_end>
     2c6:	90 91 1b 01 	lds	r25, 0x011B	; 0x80011b <__data_end+0x1>
     2ca:	01 96       	adiw	r24, 0x01	; 1
     2cc:	84 30       	cpi	r24, 0x04	; 4
     2ce:	91 05       	cpc	r25, r1
     2d0:	2c f4       	brge	.+10     	; 0x2dc <nextDigit+0x1a>
     2d2:	90 93 1b 01 	sts	0x011B, r25	; 0x80011b <__data_end+0x1>
     2d6:	80 93 1a 01 	sts	0x011A, r24	; 0x80011a <__data_end>
     2da:	08 95       	ret
     2dc:	10 92 1b 01 	sts	0x011B, r1	; 0x80011b <__data_end+0x1>
     2e0:	10 92 1a 01 	sts	0x011A, r1	; 0x80011a <__data_end>
     2e4:	08 95       	ret

000002e6 <nextValue>:
     2e6:	e0 91 1a 01 	lds	r30, 0x011A	; 0x80011a <__data_end>
     2ea:	f0 91 1b 01 	lds	r31, 0x011B	; 0x80011b <__data_end+0x1>
     2ee:	ee 0f       	add	r30, r30
     2f0:	ff 1f       	adc	r31, r31
     2f2:	e4 5d       	subi	r30, 0xD4	; 212
     2f4:	fc 4f       	sbci	r31, 0xFC	; 252
     2f6:	80 81       	ld	r24, Z
     2f8:	91 81       	ldd	r25, Z+1	; 0x01
     2fa:	01 96       	adiw	r24, 0x01	; 1
     2fc:	8a 30       	cpi	r24, 0x0A	; 10
     2fe:	91 05       	cpc	r25, r1
     300:	1c f4       	brge	.+6      	; 0x308 <nextValue+0x22>
     302:	91 83       	std	Z+1, r25	; 0x01
     304:	80 83       	st	Z, r24
     306:	08 95       	ret
     308:	11 82       	std	Z+1, r1	; 0x01
     30a:	10 82       	st	Z, r1
     30c:	08 95       	ret

0000030e <prevValue>:
     30e:	e0 91 1a 01 	lds	r30, 0x011A	; 0x80011a <__data_end>
     312:	f0 91 1b 01 	lds	r31, 0x011B	; 0x80011b <__data_end+0x1>
     316:	ee 0f       	add	r30, r30
     318:	ff 1f       	adc	r31, r31
     31a:	e4 5d       	subi	r30, 0xD4	; 212
     31c:	fc 4f       	sbci	r31, 0xFC	; 252
     31e:	80 81       	ld	r24, Z
     320:	91 81       	ldd	r25, Z+1	; 0x01
     322:	01 97       	sbiw	r24, 0x01	; 1
     324:	97 ff       	sbrs	r25, 7
     326:	02 c0       	rjmp	.+4      	; 0x32c <prevValue+0x1e>
     328:	89 e0       	ldi	r24, 0x09	; 9
     32a:	90 e0       	ldi	r25, 0x00	; 0
     32c:	91 83       	std	Z+1, r25	; 0x01
     32e:	80 83       	st	Z, r24
     330:	08 95       	ret

00000332 <clearLeds>:
     332:	a0 e2       	ldi	r26, 0x20	; 32
     334:	b3 e0       	ldi	r27, 0x03	; 3
     336:	11 96       	adiw	r26, 0x01	; 1
     338:	1c 92       	st	X, r1
     33a:	1e 92       	st	-X, r1
     33c:	ec e3       	ldi	r30, 0x3C	; 60
     33e:	f3 e0       	ldi	r31, 0x03	; 3
     340:	11 82       	std	Z+1, r1	; 0x01
     342:	10 82       	st	Z, r1
     344:	13 96       	adiw	r26, 0x03	; 3
     346:	1c 92       	st	X, r1
     348:	1e 92       	st	-X, r1
     34a:	12 97       	sbiw	r26, 0x02	; 2
     34c:	13 82       	std	Z+3, r1	; 0x03
     34e:	12 82       	std	Z+2, r1	; 0x02
     350:	15 96       	adiw	r26, 0x05	; 5
     352:	1c 92       	st	X, r1
     354:	1e 92       	st	-X, r1
     356:	14 97       	sbiw	r26, 0x04	; 4
     358:	15 82       	std	Z+5, r1	; 0x05
     35a:	14 82       	std	Z+4, r1	; 0x04
     35c:	17 96       	adiw	r26, 0x07	; 7
     35e:	1c 92       	st	X, r1
     360:	1e 92       	st	-X, r1
     362:	16 97       	sbiw	r26, 0x06	; 6
     364:	17 82       	std	Z+7, r1	; 0x07
     366:	16 82       	std	Z+6, r1	; 0x06
     368:	88 b1       	in	r24, 0x08	; 8
     36a:	80 7b       	andi	r24, 0xB0	; 176
     36c:	88 b9       	out	0x08, r24	; 8
     36e:	8b b1       	in	r24, 0x0b	; 11
     370:	88 7f       	andi	r24, 0xF8	; 248
     372:	8b b9       	out	0x0b, r24	; 11
     374:	08 95       	ret

00000376 <start>:
     376:	0e 94 43 01 	call	0x286	; 0x286 <sortSecret>
     37a:	8e e1       	ldi	r24, 0x1E	; 30
     37c:	90 e0       	ldi	r25, 0x00	; 0
     37e:	90 93 29 03 	sts	0x0329, r25	; 0x800329 <time+0x1>
     382:	80 93 28 03 	sts	0x0328, r24	; 0x800328 <time>
     386:	81 e0       	ldi	r24, 0x01	; 1
     388:	90 e0       	ldi	r25, 0x00	; 0
     38a:	90 93 1f 01 	sts	0x011F, r25	; 0x80011f <isTimeRunning+0x1>
     38e:	80 93 1e 01 	sts	0x011E, r24	; 0x80011e <isTimeRunning>
     392:	8a e0       	ldi	r24, 0x0A	; 10
     394:	90 e0       	ldi	r25, 0x00	; 0
     396:	90 93 2b 03 	sts	0x032B, r25	; 0x80032b <lives+0x1>
     39a:	80 93 2a 03 	sts	0x032A, r24	; 0x80032a <lives>
     39e:	ec e2       	ldi	r30, 0x2C	; 44
     3a0:	f3 e0       	ldi	r31, 0x03	; 3
     3a2:	11 82       	std	Z+1, r1	; 0x01
     3a4:	10 82       	st	Z, r1
     3a6:	13 82       	std	Z+3, r1	; 0x03
     3a8:	12 82       	std	Z+2, r1	; 0x02
     3aa:	15 82       	std	Z+5, r1	; 0x05
     3ac:	14 82       	std	Z+4, r1	; 0x04
     3ae:	17 82       	std	Z+7, r1	; 0x07
     3b0:	16 82       	std	Z+6, r1	; 0x06
     3b2:	0e 94 99 01 	call	0x332	; 0x332 <clearLeds>
     3b6:	10 92 1b 01 	sts	0x011B, r1	; 0x80011b <__data_end+0x1>
     3ba:	10 92 1a 01 	sts	0x011A, r1	; 0x80011a <__data_end>
     3be:	08 95       	ret

000003c0 <lose>:
     3c0:	10 92 1f 01 	sts	0x011F, r1	; 0x80011f <isTimeRunning+0x1>
     3c4:	10 92 1e 01 	sts	0x011E, r1	; 0x80011e <isTimeRunning>
     3c8:	0e 94 77 04 	call	0x8ee	; 0x8ee <nokia_lcd_clear>
     3cc:	61 e0       	ldi	r22, 0x01	; 1
     3ce:	84 e0       	ldi	r24, 0x04	; 4
     3d0:	91 e0       	ldi	r25, 0x01	; 1
     3d2:	0e 94 5c 05 	call	0xab8	; 0xab8 <nokia_lcd_write_string>
     3d6:	0e 94 71 05 	call	0xae2	; 0xae2 <nokia_lcd_render>
     3da:	0e 94 99 01 	call	0x332	; 0x332 <clearLeds>
     3de:	2f ef       	ldi	r18, 0xFF	; 255
     3e0:	8b e7       	ldi	r24, 0x7B	; 123
     3e2:	92 e9       	ldi	r25, 0x92	; 146
     3e4:	21 50       	subi	r18, 0x01	; 1
     3e6:	80 40       	sbci	r24, 0x00	; 0
     3e8:	90 40       	sbci	r25, 0x00	; 0
     3ea:	e1 f7       	brne	.-8      	; 0x3e4 <lose+0x24>
     3ec:	00 c0       	rjmp	.+0      	; 0x3ee <lose+0x2e>
     3ee:	00 00       	nop
     3f0:	0c 94 bb 01 	jmp	0x376	; 0x376 <start>

000003f4 <blinkLeds>:
     3f4:	83 e0       	ldi	r24, 0x03	; 3
     3f6:	90 e0       	ldi	r25, 0x00	; 0
     3f8:	28 b1       	in	r18, 0x08	; 8
     3fa:	2f 64       	ori	r18, 0x4F	; 79
     3fc:	28 b9       	out	0x08, r18	; 8
     3fe:	2b b1       	in	r18, 0x0b	; 11
     400:	27 60       	ori	r18, 0x07	; 7
     402:	2b b9       	out	0x0b, r18	; 11
     404:	2f ef       	ldi	r18, 0xFF	; 255
     406:	39 e6       	ldi	r19, 0x69	; 105
     408:	48 e1       	ldi	r20, 0x18	; 24
     40a:	21 50       	subi	r18, 0x01	; 1
     40c:	30 40       	sbci	r19, 0x00	; 0
     40e:	40 40       	sbci	r20, 0x00	; 0
     410:	e1 f7       	brne	.-8      	; 0x40a <__LOCK_REGION_LENGTH__+0xa>
     412:	00 c0       	rjmp	.+0      	; 0x414 <__LOCK_REGION_LENGTH__+0x14>
     414:	00 00       	nop
     416:	28 b1       	in	r18, 0x08	; 8
     418:	20 7b       	andi	r18, 0xB0	; 176
     41a:	28 b9       	out	0x08, r18	; 8
     41c:	2b b1       	in	r18, 0x0b	; 11
     41e:	28 7f       	andi	r18, 0xF8	; 248
     420:	2b b9       	out	0x0b, r18	; 11
     422:	2f ef       	ldi	r18, 0xFF	; 255
     424:	39 e6       	ldi	r19, 0x69	; 105
     426:	48 e1       	ldi	r20, 0x18	; 24
     428:	21 50       	subi	r18, 0x01	; 1
     42a:	30 40       	sbci	r19, 0x00	; 0
     42c:	40 40       	sbci	r20, 0x00	; 0
     42e:	e1 f7       	brne	.-8      	; 0x428 <__LOCK_REGION_LENGTH__+0x28>
     430:	00 c0       	rjmp	.+0      	; 0x432 <__LOCK_REGION_LENGTH__+0x32>
     432:	00 00       	nop
     434:	01 97       	sbiw	r24, 0x01	; 1
     436:	01 f7       	brne	.-64     	; 0x3f8 <blinkLeds+0x4>
     438:	08 95       	ret

0000043a <win>:
     43a:	10 92 1f 01 	sts	0x011F, r1	; 0x80011f <isTimeRunning+0x1>
     43e:	10 92 1e 01 	sts	0x011E, r1	; 0x80011e <isTimeRunning>
     442:	0e 94 77 04 	call	0x8ee	; 0x8ee <nokia_lcd_clear>
     446:	61 e0       	ldi	r22, 0x01	; 1
     448:	8e e0       	ldi	r24, 0x0E	; 14
     44a:	91 e0       	ldi	r25, 0x01	; 1
     44c:	0e 94 5c 05 	call	0xab8	; 0xab8 <nokia_lcd_write_string>
     450:	0e 94 71 05 	call	0xae2	; 0xae2 <nokia_lcd_render>
     454:	0e 94 99 01 	call	0x332	; 0x332 <clearLeds>
     458:	0e 94 fa 01 	call	0x3f4	; 0x3f4 <blinkLeds>
     45c:	0c 94 bb 01 	jmp	0x376	; 0x376 <start>

00000460 <verifyCode>:
     460:	cf 92       	push	r12
     462:	df 92       	push	r13
     464:	ef 92       	push	r14
     466:	ff 92       	push	r15
     468:	0f 93       	push	r16
     46a:	1f 93       	push	r17
     46c:	cf 93       	push	r28
     46e:	df 93       	push	r29
     470:	0e 94 99 01 	call	0x332	; 0x332 <clearLeds>
     474:	ac e2       	ldi	r26, 0x2C	; 44
     476:	b3 e0       	ldi	r27, 0x03	; 3
     478:	c0 e2       	ldi	r28, 0x20	; 32
     47a:	d3 e0       	ldi	r29, 0x03	; 3
     47c:	24 e3       	ldi	r18, 0x34	; 52
     47e:	33 e0       	ldi	r19, 0x03	; 3
     480:	44 e3       	ldi	r20, 0x34	; 52
     482:	53 e0       	ldi	r21, 0x03	; 3
     484:	6d 01       	movw	r12, r26
     486:	80 e0       	ldi	r24, 0x00	; 0
     488:	90 e0       	ldi	r25, 0x00	; 0
     48a:	61 e0       	ldi	r22, 0x01	; 1
     48c:	70 e0       	ldi	r23, 0x00	; 0
     48e:	f6 01       	movw	r30, r12
     490:	e1 90       	ld	r14, Z+
     492:	f1 90       	ld	r15, Z+
     494:	6f 01       	movw	r12, r30
     496:	fa 01       	movw	r30, r20
     498:	01 91       	ld	r16, Z+
     49a:	11 91       	ld	r17, Z+
     49c:	af 01       	movw	r20, r30
     49e:	e0 16       	cp	r14, r16
     4a0:	f1 06       	cpc	r15, r17
     4a2:	19 f4       	brne	.+6      	; 0x4aa <verifyCode+0x4a>
     4a4:	79 83       	std	Y+1, r23	; 0x01
     4a6:	68 83       	st	Y, r22
     4a8:	01 96       	adiw	r24, 0x01	; 1
     4aa:	22 96       	adiw	r28, 0x02	; 2
     4ac:	2c 15       	cp	r18, r12
     4ae:	3d 05       	cpc	r19, r13
     4b0:	71 f7       	brne	.-36     	; 0x48e <verifyCode+0x2e>
     4b2:	cc e3       	ldi	r28, 0x3C	; 60
     4b4:	d3 e0       	ldi	r29, 0x03	; 3
     4b6:	6c e3       	ldi	r22, 0x3C	; 60
     4b8:	73 e0       	ldi	r23, 0x03	; 3
     4ba:	01 e0       	ldi	r16, 0x01	; 1
     4bc:	10 e0       	ldi	r17, 0x00	; 0
     4be:	4d 91       	ld	r20, X+
     4c0:	5d 91       	ld	r21, X+
     4c2:	e4 e3       	ldi	r30, 0x34	; 52
     4c4:	f3 e0       	ldi	r31, 0x03	; 3
     4c6:	e1 90       	ld	r14, Z+
     4c8:	f1 90       	ld	r15, Z+
     4ca:	4e 15       	cp	r20, r14
     4cc:	5f 05       	cpc	r21, r15
     4ce:	11 f4       	brne	.+4      	; 0x4d4 <verifyCode+0x74>
     4d0:	19 83       	std	Y+1, r17	; 0x01
     4d2:	08 83       	st	Y, r16
     4d4:	6e 17       	cp	r22, r30
     4d6:	7f 07       	cpc	r23, r31
     4d8:	b1 f7       	brne	.-20     	; 0x4c6 <verifyCode+0x66>
     4da:	22 96       	adiw	r28, 0x02	; 2
     4dc:	2a 17       	cp	r18, r26
     4de:	3b 07       	cpc	r19, r27
     4e0:	71 f7       	brne	.-36     	; 0x4be <verifyCode+0x5e>
     4e2:	04 97       	sbiw	r24, 0x04	; 4
     4e4:	19 f4       	brne	.+6      	; 0x4ec <verifyCode+0x8c>
     4e6:	0e 94 1d 02 	call	0x43a	; 0x43a <win>
     4ea:	13 c0       	rjmp	.+38     	; 0x512 <verifyCode+0xb2>
     4ec:	80 91 2a 03 	lds	r24, 0x032A	; 0x80032a <lives>
     4f0:	90 91 2b 03 	lds	r25, 0x032B	; 0x80032b <lives+0x1>
     4f4:	01 97       	sbiw	r24, 0x01	; 1
     4f6:	90 93 2b 03 	sts	0x032B, r25	; 0x80032b <lives+0x1>
     4fa:	80 93 2a 03 	sts	0x032A, r24	; 0x80032a <lives>
     4fe:	89 2b       	or	r24, r25
     500:	11 f4       	brne	.+4      	; 0x506 <verifyCode+0xa6>
     502:	0e 94 e0 01 	call	0x3c0	; 0x3c0 <lose>
     506:	8e e1       	ldi	r24, 0x1E	; 30
     508:	90 e0       	ldi	r25, 0x00	; 0
     50a:	90 93 29 03 	sts	0x0329, r25	; 0x800329 <time+0x1>
     50e:	80 93 28 03 	sts	0x0328, r24	; 0x800328 <time>
     512:	28 b1       	in	r18, 0x08	; 8
     514:	60 91 22 03 	lds	r22, 0x0322	; 0x800322 <greenLeds+0x2>
     518:	70 91 23 03 	lds	r23, 0x0323	; 0x800323 <greenLeds+0x3>
     51c:	66 0f       	add	r22, r22
     51e:	77 1f       	adc	r23, r23
     520:	80 91 20 03 	lds	r24, 0x0320	; 0x800320 <greenLeds>
     524:	28 2b       	or	r18, r24
     526:	26 2b       	or	r18, r22
     528:	40 91 24 03 	lds	r20, 0x0324	; 0x800324 <greenLeds+0x4>
     52c:	50 91 25 03 	lds	r21, 0x0325	; 0x800325 <greenLeds+0x5>
     530:	44 0f       	add	r20, r20
     532:	55 1f       	adc	r21, r21
     534:	44 0f       	add	r20, r20
     536:	55 1f       	adc	r21, r21
     538:	82 2f       	mov	r24, r18
     53a:	84 2b       	or	r24, r20
     53c:	20 91 26 03 	lds	r18, 0x0326	; 0x800326 <greenLeds+0x6>
     540:	30 91 27 03 	lds	r19, 0x0327	; 0x800327 <greenLeds+0x7>
     544:	43 e0       	ldi	r20, 0x03	; 3
     546:	22 0f       	add	r18, r18
     548:	33 1f       	adc	r19, r19
     54a:	4a 95       	dec	r20
     54c:	e1 f7       	brne	.-8      	; 0x546 <verifyCode+0xe6>
     54e:	28 2b       	or	r18, r24
     550:	80 91 3c 03 	lds	r24, 0x033C	; 0x80033c <yellowLeds>
     554:	90 91 3d 03 	lds	r25, 0x033D	; 0x80033d <yellowLeds+0x1>
     558:	56 e0       	ldi	r21, 0x06	; 6
     55a:	88 0f       	add	r24, r24
     55c:	99 1f       	adc	r25, r25
     55e:	5a 95       	dec	r21
     560:	e1 f7       	brne	.-8      	; 0x55a <verifyCode+0xfa>
     562:	82 2b       	or	r24, r18
     564:	88 b9       	out	0x08, r24	; 8
     566:	9b b1       	in	r25, 0x0b	; 11
     568:	20 91 40 03 	lds	r18, 0x0340	; 0x800340 <yellowLeds+0x4>
     56c:	30 91 41 03 	lds	r19, 0x0341	; 0x800341 <yellowLeds+0x5>
     570:	22 0f       	add	r18, r18
     572:	33 1f       	adc	r19, r19
     574:	80 91 3e 03 	lds	r24, 0x033E	; 0x80033e <yellowLeds+0x2>
     578:	89 2b       	or	r24, r25
     57a:	28 2b       	or	r18, r24
     57c:	80 91 42 03 	lds	r24, 0x0342	; 0x800342 <yellowLeds+0x6>
     580:	90 91 43 03 	lds	r25, 0x0343	; 0x800343 <yellowLeds+0x7>
     584:	88 0f       	add	r24, r24
     586:	99 1f       	adc	r25, r25
     588:	88 0f       	add	r24, r24
     58a:	99 1f       	adc	r25, r25
     58c:	82 2b       	or	r24, r18
     58e:	8b b9       	out	0x0b, r24	; 11
     590:	df 91       	pop	r29
     592:	cf 91       	pop	r28
     594:	1f 91       	pop	r17
     596:	0f 91       	pop	r16
     598:	ff 90       	pop	r15
     59a:	ef 90       	pop	r14
     59c:	df 90       	pop	r13
     59e:	cf 90       	pop	r12
     5a0:	08 95       	ret

000005a2 <renderCode>:
     5a2:	1f 93       	push	r17
     5a4:	cf 93       	push	r28
     5a6:	df 93       	push	r29
     5a8:	cd b7       	in	r28, 0x3d	; 61
     5aa:	de b7       	in	r29, 0x3e	; 62
     5ac:	60 97       	sbiw	r28, 0x10	; 16
     5ae:	0f b6       	in	r0, 0x3f	; 63
     5b0:	f8 94       	cli
     5b2:	de bf       	out	0x3e, r29	; 62
     5b4:	0f be       	out	0x3f, r0	; 63
     5b6:	cd bf       	out	0x3d, r28	; 61
     5b8:	60 e0       	ldi	r22, 0x00	; 0
     5ba:	80 e0       	ldi	r24, 0x00	; 0
     5bc:	0e 94 6c 05 	call	0xad8	; 0xad8 <nokia_lcd_set_cursor>
     5c0:	ac e2       	ldi	r26, 0x2C	; 44
     5c2:	b3 e0       	ldi	r27, 0x03	; 3
     5c4:	fe 01       	movw	r30, r28
     5c6:	39 96       	adiw	r30, 0x09	; 9
     5c8:	ae 01       	movw	r20, r28
     5ca:	4f 5e       	subi	r20, 0xEF	; 239
     5cc:	5f 4f       	sbci	r21, 0xFF	; 255
     5ce:	cf 01       	movw	r24, r30
     5d0:	60 e2       	ldi	r22, 0x20	; 32
     5d2:	2d 91       	ld	r18, X+
     5d4:	3d 91       	ld	r19, X+
     5d6:	20 5d       	subi	r18, 0xD0	; 208
     5d8:	20 83       	st	Z, r18
     5da:	10 e2       	ldi	r17, 0x20	; 32
     5dc:	61 83       	std	Z+1, r22	; 0x01
     5de:	32 96       	adiw	r30, 0x02	; 2
     5e0:	e4 17       	cp	r30, r20
     5e2:	f5 07       	cpc	r31, r21
     5e4:	b1 f7       	brne	.-20     	; 0x5d2 <renderCode+0x30>
     5e6:	18 8a       	std	Y+16, r1	; 0x10
     5e8:	61 e0       	ldi	r22, 0x01	; 1
     5ea:	0e 94 5c 05 	call	0xab8	; 0xab8 <nokia_lcd_write_string>
     5ee:	6a e0       	ldi	r22, 0x0A	; 10
     5f0:	80 e0       	ldi	r24, 0x00	; 0
     5f2:	0e 94 6c 05 	call	0xad8	; 0xad8 <nokia_lcd_set_cursor>
     5f6:	19 83       	std	Y+1, r17	; 0x01
     5f8:	1a 83       	std	Y+2, r17	; 0x02
     5fa:	1b 83       	std	Y+3, r17	; 0x03
     5fc:	1c 83       	std	Y+4, r17	; 0x04
     5fe:	e0 91 1a 01 	lds	r30, 0x011A	; 0x80011a <__data_end>
     602:	f0 91 1b 01 	lds	r31, 0x011B	; 0x80011b <__data_end+0x1>
     606:	ee 0f       	add	r30, r30
     608:	ff 1f       	adc	r31, r31
     60a:	81 e0       	ldi	r24, 0x01	; 1
     60c:	90 e0       	ldi	r25, 0x00	; 0
     60e:	8c 0f       	add	r24, r28
     610:	9d 1f       	adc	r25, r29
     612:	e8 0f       	add	r30, r24
     614:	f9 1f       	adc	r31, r25
     616:	8a e2       	ldi	r24, 0x2A	; 42
     618:	80 83       	st	Z, r24
     61a:	18 86       	std	Y+8, r1	; 0x08
     61c:	61 e0       	ldi	r22, 0x01	; 1
     61e:	ce 01       	movw	r24, r28
     620:	01 96       	adiw	r24, 0x01	; 1
     622:	0e 94 5c 05 	call	0xab8	; 0xab8 <nokia_lcd_write_string>
     626:	60 96       	adiw	r28, 0x10	; 16
     628:	0f b6       	in	r0, 0x3f	; 63
     62a:	f8 94       	cli
     62c:	de bf       	out	0x3e, r29	; 62
     62e:	0f be       	out	0x3f, r0	; 63
     630:	cd bf       	out	0x3d, r28	; 61
     632:	df 91       	pop	r29
     634:	cf 91       	pop	r28
     636:	1f 91       	pop	r17
     638:	08 95       	ret

0000063a <renderTime>:
     63a:	64 e1       	ldi	r22, 0x14	; 20
     63c:	80 e0       	ldi	r24, 0x00	; 0
     63e:	0e 94 6c 05 	call	0xad8	; 0xad8 <nokia_lcd_set_cursor>
     642:	80 91 28 03 	lds	r24, 0x0328	; 0x800328 <time>
     646:	90 91 29 03 	lds	r25, 0x0329	; 0x800329 <time+0x1>
     64a:	8a 30       	cpi	r24, 0x0A	; 10
     64c:	91 05       	cpc	r25, r1
     64e:	3c f4       	brge	.+14     	; 0x65e <renderTime+0x24>
     650:	90 e3       	ldi	r25, 0x30	; 48
     652:	90 93 1a 03 	sts	0x031A, r25	; 0x80031a <stringTime>
     656:	80 5d       	subi	r24, 0xD0	; 208
     658:	80 93 1b 03 	sts	0x031B, r24	; 0x80031b <stringTime+0x1>
     65c:	05 c0       	rjmp	.+10     	; 0x668 <renderTime+0x2e>
     65e:	4a e0       	ldi	r20, 0x0A	; 10
     660:	6a e1       	ldi	r22, 0x1A	; 26
     662:	73 e0       	ldi	r23, 0x03	; 3
     664:	0e 94 6c 09 	call	0x12d8	; 0x12d8 <__itoa_ncheck>
     668:	10 92 1c 03 	sts	0x031C, r1	; 0x80031c <stringTime+0x2>
     66c:	61 e0       	ldi	r22, 0x01	; 1
     66e:	8a e1       	ldi	r24, 0x1A	; 26
     670:	93 e0       	ldi	r25, 0x03	; 3
     672:	0c 94 5c 05 	jmp	0xab8	; 0xab8 <nokia_lcd_write_string>

00000676 <renderLives>:
     676:	6e e1       	ldi	r22, 0x1E	; 30
     678:	80 e0       	ldi	r24, 0x00	; 0
     67a:	0e 94 6c 05 	call	0xad8	; 0xad8 <nokia_lcd_set_cursor>
     67e:	80 91 2a 03 	lds	r24, 0x032A	; 0x80032a <lives>
     682:	90 91 2b 03 	lds	r25, 0x032B	; 0x80032b <lives+0x1>
     686:	8a 30       	cpi	r24, 0x0A	; 10
     688:	91 05       	cpc	r25, r1
     68a:	3c f4       	brge	.+14     	; 0x69a <renderLives+0x24>
     68c:	90 e3       	ldi	r25, 0x30	; 48
     68e:	90 93 1d 03 	sts	0x031D, r25	; 0x80031d <stringLives>
     692:	80 5d       	subi	r24, 0xD0	; 208
     694:	80 93 1e 03 	sts	0x031E, r24	; 0x80031e <stringLives+0x1>
     698:	05 c0       	rjmp	.+10     	; 0x6a4 <renderLives+0x2e>
     69a:	4a e0       	ldi	r20, 0x0A	; 10
     69c:	6d e1       	ldi	r22, 0x1D	; 29
     69e:	73 e0       	ldi	r23, 0x03	; 3
     6a0:	0e 94 6c 09 	call	0x12d8	; 0x12d8 <__itoa_ncheck>
     6a4:	10 92 1f 03 	sts	0x031F, r1	; 0x80031f <stringLives+0x2>
     6a8:	61 e0       	ldi	r22, 0x01	; 1
     6aa:	8d e1       	ldi	r24, 0x1D	; 29
     6ac:	93 e0       	ldi	r25, 0x03	; 3
     6ae:	0c 94 5c 05 	jmp	0xab8	; 0xab8 <nokia_lcd_write_string>

000006b2 <render>:
     6b2:	80 91 1e 01 	lds	r24, 0x011E	; 0x80011e <isTimeRunning>
     6b6:	90 91 1f 01 	lds	r25, 0x011F	; 0x80011f <isTimeRunning+0x1>
     6ba:	89 2b       	or	r24, r25
     6bc:	51 f0       	breq	.+20     	; 0x6d2 <render+0x20>
     6be:	0e 94 77 04 	call	0x8ee	; 0x8ee <nokia_lcd_clear>
     6c2:	0e 94 d1 02 	call	0x5a2	; 0x5a2 <renderCode>
     6c6:	0e 94 1d 03 	call	0x63a	; 0x63a <renderTime>
     6ca:	0e 94 3b 03 	call	0x676	; 0x676 <renderLives>
     6ce:	0c 94 71 05 	jmp	0xae2	; 0xae2 <nokia_lcd_render>
     6d2:	08 95       	ret

000006d4 <__vector_11>:
     6d4:	1f 92       	push	r1
     6d6:	0f 92       	push	r0
     6d8:	0f b6       	in	r0, 0x3f	; 63
     6da:	0f 92       	push	r0
     6dc:	11 24       	eor	r1, r1
     6de:	2f 93       	push	r18
     6e0:	3f 93       	push	r19
     6e2:	4f 93       	push	r20
     6e4:	5f 93       	push	r21
     6e6:	6f 93       	push	r22
     6e8:	7f 93       	push	r23
     6ea:	8f 93       	push	r24
     6ec:	9f 93       	push	r25
     6ee:	af 93       	push	r26
     6f0:	bf 93       	push	r27
     6f2:	ef 93       	push	r30
     6f4:	ff 93       	push	r31
     6f6:	80 91 1e 01 	lds	r24, 0x011E	; 0x80011e <isTimeRunning>
     6fa:	90 91 1f 01 	lds	r25, 0x011F	; 0x80011f <isTimeRunning+0x1>
     6fe:	89 2b       	or	r24, r25
     700:	71 f0       	breq	.+28     	; 0x71e <__vector_11+0x4a>
     702:	0e 94 59 03 	call	0x6b2	; 0x6b2 <render>
     706:	80 91 28 03 	lds	r24, 0x0328	; 0x800328 <time>
     70a:	90 91 29 03 	lds	r25, 0x0329	; 0x800329 <time+0x1>
     70e:	01 97       	sbiw	r24, 0x01	; 1
     710:	90 93 29 03 	sts	0x0329, r25	; 0x800329 <time+0x1>
     714:	80 93 28 03 	sts	0x0328, r24	; 0x800328 <time>
     718:	97 fd       	sbrc	r25, 7
     71a:	0e 94 e0 01 	call	0x3c0	; 0x3c0 <lose>
     71e:	ff 91       	pop	r31
     720:	ef 91       	pop	r30
     722:	bf 91       	pop	r27
     724:	af 91       	pop	r26
     726:	9f 91       	pop	r25
     728:	8f 91       	pop	r24
     72a:	7f 91       	pop	r23
     72c:	6f 91       	pop	r22
     72e:	5f 91       	pop	r21
     730:	4f 91       	pop	r20
     732:	3f 91       	pop	r19
     734:	2f 91       	pop	r18
     736:	0f 90       	pop	r0
     738:	0f be       	out	0x3f, r0	; 63
     73a:	0f 90       	pop	r0
     73c:	1f 90       	pop	r1
     73e:	18 95       	reti

00000740 <__vector_5>:
     740:	1f 92       	push	r1
     742:	0f 92       	push	r0
     744:	0f b6       	in	r0, 0x3f	; 63
     746:	0f 92       	push	r0
     748:	11 24       	eor	r1, r1
     74a:	2f 93       	push	r18
     74c:	3f 93       	push	r19
     74e:	4f 93       	push	r20
     750:	5f 93       	push	r21
     752:	6f 93       	push	r22
     754:	7f 93       	push	r23
     756:	8f 93       	push	r24
     758:	9f 93       	push	r25
     75a:	af 93       	push	r26
     75c:	bf 93       	push	r27
     75e:	ef 93       	push	r30
     760:	ff 93       	push	r31
     762:	4b 9b       	sbis	0x09, 3	; 9
     764:	03 c0       	rjmp	.+6      	; 0x76c <__vector_5+0x2c>
     766:	4c 99       	sbic	0x09, 4	; 9
     768:	0e c0       	rjmp	.+28     	; 0x786 <__vector_5+0x46>
     76a:	10 c0       	rjmp	.+32     	; 0x78c <__vector_5+0x4c>
     76c:	0e 94 73 01 	call	0x2e6	; 0x2e6 <nextValue>
     770:	0e 94 59 03 	call	0x6b2	; 0x6b2 <render>
     774:	4b 99       	sbic	0x09, 3	; 9
     776:	f7 cf       	rjmp	.-18     	; 0x766 <__vector_5+0x26>
     778:	8f e9       	ldi	r24, 0x9F	; 159
     77a:	9f e0       	ldi	r25, 0x0F	; 15
     77c:	01 97       	sbiw	r24, 0x01	; 1
     77e:	f1 f7       	brne	.-4      	; 0x77c <__vector_5+0x3c>
     780:	00 c0       	rjmp	.+0      	; 0x782 <__vector_5+0x42>
     782:	00 00       	nop
     784:	f7 cf       	rjmp	.-18     	; 0x774 <__vector_5+0x34>
     786:	4d 99       	sbic	0x09, 5	; 9
     788:	0e c0       	rjmp	.+28     	; 0x7a6 <__vector_5+0x66>
     78a:	10 c0       	rjmp	.+32     	; 0x7ac <__vector_5+0x6c>
     78c:	0e 94 87 01 	call	0x30e	; 0x30e <prevValue>
     790:	0e 94 59 03 	call	0x6b2	; 0x6b2 <render>
     794:	4c 99       	sbic	0x09, 4	; 9
     796:	f7 cf       	rjmp	.-18     	; 0x786 <__vector_5+0x46>
     798:	8f e9       	ldi	r24, 0x9F	; 159
     79a:	9f e0       	ldi	r25, 0x0F	; 15
     79c:	01 97       	sbiw	r24, 0x01	; 1
     79e:	f1 f7       	brne	.-4      	; 0x79c <__vector_5+0x5c>
     7a0:	00 c0       	rjmp	.+0      	; 0x7a2 <__vector_5+0x62>
     7a2:	00 00       	nop
     7a4:	f7 cf       	rjmp	.-18     	; 0x794 <__vector_5+0x54>
     7a6:	4e 99       	sbic	0x09, 6	; 9
     7a8:	0e c0       	rjmp	.+28     	; 0x7c6 <__vector_5+0x86>
     7aa:	10 c0       	rjmp	.+32     	; 0x7cc <__vector_5+0x8c>
     7ac:	0e 94 61 01 	call	0x2c2	; 0x2c2 <nextDigit>
     7b0:	0e 94 59 03 	call	0x6b2	; 0x6b2 <render>
     7b4:	4d 99       	sbic	0x09, 5	; 9
     7b6:	f7 cf       	rjmp	.-18     	; 0x7a6 <__vector_5+0x66>
     7b8:	8f e9       	ldi	r24, 0x9F	; 159
     7ba:	9f e0       	ldi	r25, 0x0F	; 15
     7bc:	01 97       	sbiw	r24, 0x01	; 1
     7be:	f1 f7       	brne	.-4      	; 0x7bc <__vector_5+0x7c>
     7c0:	00 c0       	rjmp	.+0      	; 0x7c2 <__vector_5+0x82>
     7c2:	00 00       	nop
     7c4:	f7 cf       	rjmp	.-18     	; 0x7b4 <__vector_5+0x74>
     7c6:	4f 9b       	sbis	0x09, 7	; 9
     7c8:	25 c0       	rjmp	.+74     	; 0x814 <__vector_5+0xd4>
     7ca:	0d c0       	rjmp	.+26     	; 0x7e6 <__vector_5+0xa6>
     7cc:	0e 94 30 02 	call	0x460	; 0x460 <verifyCode>
     7d0:	0e 94 59 03 	call	0x6b2	; 0x6b2 <render>
     7d4:	4e 99       	sbic	0x09, 6	; 9
     7d6:	f7 cf       	rjmp	.-18     	; 0x7c6 <__vector_5+0x86>
     7d8:	8f e9       	ldi	r24, 0x9F	; 159
     7da:	9f e0       	ldi	r25, 0x0F	; 15
     7dc:	01 97       	sbiw	r24, 0x01	; 1
     7de:	f1 f7       	brne	.-4      	; 0x7dc <__vector_5+0x9c>
     7e0:	00 c0       	rjmp	.+0      	; 0x7e2 <__vector_5+0xa2>
     7e2:	00 00       	nop
     7e4:	f7 cf       	rjmp	.-18     	; 0x7d4 <__vector_5+0x94>
     7e6:	8f e9       	ldi	r24, 0x9F	; 159
     7e8:	9f e0       	ldi	r25, 0x0F	; 15
     7ea:	01 97       	sbiw	r24, 0x01	; 1
     7ec:	f1 f7       	brne	.-4      	; 0x7ea <__vector_5+0xaa>
     7ee:	00 c0       	rjmp	.+0      	; 0x7f0 <__vector_5+0xb0>
     7f0:	00 00       	nop
     7f2:	ff 91       	pop	r31
     7f4:	ef 91       	pop	r30
     7f6:	bf 91       	pop	r27
     7f8:	af 91       	pop	r26
     7fa:	9f 91       	pop	r25
     7fc:	8f 91       	pop	r24
     7fe:	7f 91       	pop	r23
     800:	6f 91       	pop	r22
     802:	5f 91       	pop	r21
     804:	4f 91       	pop	r20
     806:	3f 91       	pop	r19
     808:	2f 91       	pop	r18
     80a:	0f 90       	pop	r0
     80c:	0f be       	out	0x3f, r0	; 63
     80e:	0f 90       	pop	r0
     810:	1f 90       	pop	r1
     812:	18 95       	reti
     814:	0e 94 bb 01 	call	0x376	; 0x376 <start>
     818:	4f 99       	sbic	0x09, 7	; 9
     81a:	e5 cf       	rjmp	.-54     	; 0x7e6 <__vector_5+0xa6>
     81c:	8f e9       	ldi	r24, 0x9F	; 159
     81e:	9f e0       	ldi	r25, 0x0F	; 15
     820:	01 97       	sbiw	r24, 0x01	; 1
     822:	f1 f7       	brne	.-4      	; 0x820 <__vector_5+0xe0>
     824:	00 c0       	rjmp	.+0      	; 0x826 <__vector_5+0xe6>
     826:	00 00       	nop
     828:	f7 cf       	rjmp	.-18     	; 0x818 <__vector_5+0xd8>

0000082a <write>:
     82a:	29 98       	cbi	0x05, 1	; 5
     82c:	66 23       	and	r22, r22
     82e:	11 f0       	breq	.+4      	; 0x834 <write+0xa>
     830:	2b 9a       	sbi	0x05, 3	; 5
     832:	01 c0       	rjmp	.+2      	; 0x836 <write+0xc>
     834:	2b 98       	cbi	0x05, 3	; 5
     836:	27 e0       	ldi	r18, 0x07	; 7
     838:	30 e0       	ldi	r19, 0x00	; 0
     83a:	90 e0       	ldi	r25, 0x00	; 0
     83c:	ac 01       	movw	r20, r24
     83e:	02 2e       	mov	r0, r18
     840:	02 c0       	rjmp	.+4      	; 0x846 <write+0x1c>
     842:	55 95       	asr	r21
     844:	47 95       	ror	r20
     846:	0a 94       	dec	r0
     848:	e2 f7       	brpl	.-8      	; 0x842 <write+0x18>
     84a:	40 ff       	sbrs	r20, 0
     84c:	02 c0       	rjmp	.+4      	; 0x852 <write+0x28>
     84e:	2c 9a       	sbi	0x05, 4	; 5
     850:	01 c0       	rjmp	.+2      	; 0x854 <write+0x2a>
     852:	2c 98       	cbi	0x05, 4	; 5
     854:	2d 9a       	sbi	0x05, 5	; 5
     856:	2d 98       	cbi	0x05, 5	; 5
     858:	21 50       	subi	r18, 0x01	; 1
     85a:	31 09       	sbc	r19, r1
     85c:	78 f7       	brcc	.-34     	; 0x83c <write+0x12>
     85e:	29 9a       	sbi	0x05, 1	; 5
     860:	08 95       	ret

00000862 <write_cmd>:
     862:	60 e0       	ldi	r22, 0x00	; 0
     864:	0c 94 15 04 	jmp	0x82a	; 0x82a <write>

00000868 <nokia_lcd_init>:
     868:	cf 93       	push	r28
     86a:	df 93       	push	r29
     86c:	21 9a       	sbi	0x04, 1	; 4
     86e:	22 9a       	sbi	0x04, 2	; 4
     870:	23 9a       	sbi	0x04, 3	; 4
     872:	24 9a       	sbi	0x04, 4	; 4
     874:	25 9a       	sbi	0x04, 5	; 4
     876:	2a 9a       	sbi	0x05, 2	; 5
     878:	29 9a       	sbi	0x05, 1	; 5
     87a:	8f e3       	ldi	r24, 0x3F	; 63
     87c:	9c e9       	ldi	r25, 0x9C	; 156
     87e:	01 97       	sbiw	r24, 0x01	; 1
     880:	f1 f7       	brne	.-4      	; 0x87e <nokia_lcd_init+0x16>
     882:	00 c0       	rjmp	.+0      	; 0x884 <nokia_lcd_init+0x1c>
     884:	00 00       	nop
     886:	2a 98       	cbi	0x05, 2	; 5
     888:	9f ef       	ldi	r25, 0xFF	; 255
     88a:	2a e6       	ldi	r18, 0x6A	; 106
     88c:	83 e0       	ldi	r24, 0x03	; 3
     88e:	91 50       	subi	r25, 0x01	; 1
     890:	20 40       	sbci	r18, 0x00	; 0
     892:	80 40       	sbci	r24, 0x00	; 0
     894:	e1 f7       	brne	.-8      	; 0x88e <nokia_lcd_init+0x26>
     896:	00 c0       	rjmp	.+0      	; 0x898 <nokia_lcd_init+0x30>
     898:	00 00       	nop
     89a:	2a 9a       	sbi	0x05, 2	; 5
     89c:	29 98       	cbi	0x05, 1	; 5
     89e:	81 e2       	ldi	r24, 0x21	; 33
     8a0:	0e 94 31 04 	call	0x862	; 0x862 <write_cmd>
     8a4:	83 e1       	ldi	r24, 0x13	; 19
     8a6:	0e 94 31 04 	call	0x862	; 0x862 <write_cmd>
     8aa:	86 e0       	ldi	r24, 0x06	; 6
     8ac:	0e 94 31 04 	call	0x862	; 0x862 <write_cmd>
     8b0:	82 ec       	ldi	r24, 0xC2	; 194
     8b2:	0e 94 31 04 	call	0x862	; 0x862 <write_cmd>
     8b6:	80 e2       	ldi	r24, 0x20	; 32
     8b8:	0e 94 31 04 	call	0x862	; 0x862 <write_cmd>
     8bc:	89 e0       	ldi	r24, 0x09	; 9
     8be:	0e 94 31 04 	call	0x862	; 0x862 <write_cmd>
     8c2:	80 e8       	ldi	r24, 0x80	; 128
     8c4:	0e 94 31 04 	call	0x862	; 0x862 <write_cmd>
     8c8:	80 e4       	ldi	r24, 0x40	; 64
     8ca:	0e 94 31 04 	call	0x862	; 0x862 <write_cmd>
     8ce:	c8 ef       	ldi	r28, 0xF8	; 248
     8d0:	d1 e0       	ldi	r29, 0x01	; 1
     8d2:	61 e0       	ldi	r22, 0x01	; 1
     8d4:	80 e0       	ldi	r24, 0x00	; 0
     8d6:	0e 94 15 04 	call	0x82a	; 0x82a <write>
     8da:	21 97       	sbiw	r28, 0x01	; 1
     8dc:	d1 f7       	brne	.-12     	; 0x8d2 <nokia_lcd_init+0x6a>
     8de:	88 e0       	ldi	r24, 0x08	; 8
     8e0:	0e 94 31 04 	call	0x862	; 0x862 <write_cmd>
     8e4:	8c e0       	ldi	r24, 0x0C	; 12
     8e6:	df 91       	pop	r29
     8e8:	cf 91       	pop	r28
     8ea:	0c 94 31 04 	jmp	0x862	; 0x862 <write_cmd>

000008ee <nokia_lcd_clear>:
     8ee:	80 e8       	ldi	r24, 0x80	; 128
     8f0:	0e 94 31 04 	call	0x862	; 0x862 <write_cmd>
     8f4:	80 e4       	ldi	r24, 0x40	; 64
     8f6:	0e 94 31 04 	call	0x862	; 0x862 <write_cmd>
     8fa:	10 92 18 03 	sts	0x0318, r1	; 0x800318 <nokia_lcd+0x1f8>
     8fe:	10 92 19 03 	sts	0x0319, r1	; 0x800319 <nokia_lcd+0x1f9>
     902:	88 ef       	ldi	r24, 0xF8	; 248
     904:	91 e0       	ldi	r25, 0x01	; 1
     906:	e0 e2       	ldi	r30, 0x20	; 32
     908:	f1 e0       	ldi	r31, 0x01	; 1
     90a:	df 01       	movw	r26, r30
     90c:	9c 01       	movw	r18, r24
     90e:	1d 92       	st	X+, r1
     910:	21 50       	subi	r18, 0x01	; 1
     912:	30 40       	sbci	r19, 0x00	; 0
     914:	e1 f7       	brne	.-8      	; 0x90e <__stack+0xf>
     916:	08 95       	ret

00000918 <nokia_lcd_power>:
     918:	81 11       	cpse	r24, r1
     91a:	02 c0       	rjmp	.+4      	; 0x920 <nokia_lcd_power+0x8>
     91c:	84 e2       	ldi	r24, 0x24	; 36
     91e:	01 c0       	rjmp	.+2      	; 0x922 <nokia_lcd_power+0xa>
     920:	80 e2       	ldi	r24, 0x20	; 32
     922:	0c 94 31 04 	jmp	0x862	; 0x862 <write_cmd>

00000926 <nokia_lcd_set_pixel>:
     926:	96 2f       	mov	r25, r22
     928:	96 95       	lsr	r25
     92a:	96 95       	lsr	r25
     92c:	96 95       	lsr	r25
     92e:	e8 2f       	mov	r30, r24
     930:	f0 e0       	ldi	r31, 0x00	; 0
     932:	84 e5       	ldi	r24, 0x54	; 84
     934:	98 9f       	mul	r25, r24
     936:	e0 0d       	add	r30, r0
     938:	f1 1d       	adc	r31, r1
     93a:	11 24       	eor	r1, r1
     93c:	e0 5e       	subi	r30, 0xE0	; 224
     93e:	fe 4f       	sbci	r31, 0xFE	; 254
     940:	67 70       	andi	r22, 0x07	; 7
     942:	81 e0       	ldi	r24, 0x01	; 1
     944:	90 e0       	ldi	r25, 0x00	; 0
     946:	01 c0       	rjmp	.+2      	; 0x94a <nokia_lcd_set_pixel+0x24>
     948:	88 0f       	add	r24, r24
     94a:	6a 95       	dec	r22
     94c:	ea f7       	brpl	.-6      	; 0x948 <nokia_lcd_set_pixel+0x22>
     94e:	44 23       	and	r20, r20
     950:	19 f0       	breq	.+6      	; 0x958 <nokia_lcd_set_pixel+0x32>
     952:	90 81       	ld	r25, Z
     954:	89 2b       	or	r24, r25
     956:	03 c0       	rjmp	.+6      	; 0x95e <nokia_lcd_set_pixel+0x38>
     958:	80 95       	com	r24
     95a:	90 81       	ld	r25, Z
     95c:	89 23       	and	r24, r25
     95e:	80 83       	st	Z, r24
     960:	08 95       	ret

00000962 <nokia_lcd_write_char>:
     962:	8f 92       	push	r8
     964:	9f 92       	push	r9
     966:	af 92       	push	r10
     968:	bf 92       	push	r11
     96a:	df 92       	push	r13
     96c:	ef 92       	push	r14
     96e:	ff 92       	push	r15
     970:	0f 93       	push	r16
     972:	1f 93       	push	r17
     974:	cf 93       	push	r28
     976:	df 93       	push	r29
     978:	00 d0       	rcall	.+0      	; 0x97a <nokia_lcd_write_char+0x18>
     97a:	00 d0       	rcall	.+0      	; 0x97c <nokia_lcd_write_char+0x1a>
     97c:	1f 92       	push	r1
     97e:	cd b7       	in	r28, 0x3d	; 61
     980:	de b7       	in	r29, 0x3e	; 62
     982:	f6 2e       	mov	r15, r22
     984:	28 2f       	mov	r18, r24
     986:	08 2e       	mov	r0, r24
     988:	00 0c       	add	r0, r0
     98a:	33 0b       	sbc	r19, r19
     98c:	80 32       	cpi	r24, 0x20	; 32
     98e:	6c f0       	brlt	.+26     	; 0x9aa <nokia_lcd_write_char+0x48>
     990:	20 52       	subi	r18, 0x20	; 32
     992:	31 09       	sbc	r19, r1
     994:	85 e0       	ldi	r24, 0x05	; 5
     996:	82 9f       	mul	r24, r18
     998:	b0 01       	movw	r22, r0
     99a:	83 9f       	mul	r24, r19
     99c:	70 0d       	add	r23, r0
     99e:	11 24       	eor	r1, r1
     9a0:	68 59       	subi	r22, 0x98	; 152
     9a2:	7f 4f       	sbci	r23, 0xFF	; 255
     9a4:	45 e0       	ldi	r20, 0x05	; 5
     9a6:	50 e0       	ldi	r21, 0x00	; 0
     9a8:	0e c0       	rjmp	.+28     	; 0x9c6 <nokia_lcd_write_char+0x64>
     9aa:	22 0f       	add	r18, r18
     9ac:	33 1f       	adc	r19, r19
     9ae:	f9 01       	movw	r30, r18
     9b0:	ec 5b       	subi	r30, 0xBC	; 188
     9b2:	fc 4f       	sbci	r31, 0xFC	; 252
     9b4:	00 81       	ld	r16, Z
     9b6:	11 81       	ldd	r17, Z+1	; 0x01
     9b8:	01 15       	cp	r16, r1
     9ba:	11 05       	cpc	r17, r1
     9bc:	59 f4       	brne	.+22     	; 0x9d4 <nokia_lcd_write_char+0x72>
     9be:	45 e0       	ldi	r20, 0x05	; 5
     9c0:	50 e0       	ldi	r21, 0x00	; 0
     9c2:	68 e6       	ldi	r22, 0x68	; 104
     9c4:	70 e0       	ldi	r23, 0x00	; 0
     9c6:	ce 01       	movw	r24, r28
     9c8:	01 96       	adiw	r24, 0x01	; 1
     9ca:	0e 94 63 09 	call	0x12c6	; 0x12c6 <memcpy_P>
     9ce:	8e 01       	movw	r16, r28
     9d0:	0f 5f       	subi	r16, 0xFF	; 255
     9d2:	1f 4f       	sbci	r17, 0xFF	; 255
     9d4:	85 e0       	ldi	r24, 0x05	; 5
     9d6:	f8 9e       	mul	r15, r24
     9d8:	50 01       	movw	r10, r0
     9da:	11 24       	eor	r1, r1
     9dc:	97 e0       	ldi	r25, 0x07	; 7
     9de:	f9 9e       	mul	r15, r25
     9e0:	40 01       	movw	r8, r0
     9e2:	11 24       	eor	r1, r1
     9e4:	d1 2c       	mov	r13, r1
     9e6:	8d 2d       	mov	r24, r13
     9e8:	90 e0       	ldi	r25, 0x00	; 0
     9ea:	8a 15       	cp	r24, r10
     9ec:	9b 05       	cpc	r25, r11
     9ee:	44 f5       	brge	.+80     	; 0xa40 <nokia_lcd_write_char+0xde>
     9f0:	e1 2c       	mov	r14, r1
     9f2:	8e 2d       	mov	r24, r14
     9f4:	90 e0       	ldi	r25, 0x00	; 0
     9f6:	88 15       	cp	r24, r8
     9f8:	99 05       	cpc	r25, r9
     9fa:	04 f5       	brge	.+64     	; 0xa3c <nokia_lcd_write_char+0xda>
     9fc:	8d 2d       	mov	r24, r13
     9fe:	6f 2d       	mov	r22, r15
     a00:	0e 94 0e 07 	call	0xe1c	; 0xe1c <__udivmodqi4>
     a04:	f8 01       	movw	r30, r16
     a06:	e8 0f       	add	r30, r24
     a08:	f1 1d       	adc	r31, r1
     a0a:	20 81       	ld	r18, Z
     a0c:	30 e0       	ldi	r19, 0x00	; 0
     a0e:	8e 2d       	mov	r24, r14
     a10:	0e 94 0e 07 	call	0xe1c	; 0xe1c <__udivmodqi4>
     a14:	02 c0       	rjmp	.+4      	; 0xa1a <nokia_lcd_write_char+0xb8>
     a16:	35 95       	asr	r19
     a18:	27 95       	ror	r18
     a1a:	8a 95       	dec	r24
     a1c:	e2 f7       	brpl	.-8      	; 0xa16 <nokia_lcd_write_char+0xb4>
     a1e:	60 91 19 03 	lds	r22, 0x0319	; 0x800319 <nokia_lcd+0x1f9>
     a22:	80 91 18 03 	lds	r24, 0x0318	; 0x800318 <nokia_lcd+0x1f8>
     a26:	6e 0d       	add	r22, r14
     a28:	20 ff       	sbrs	r18, 0
     a2a:	02 c0       	rjmp	.+4      	; 0xa30 <nokia_lcd_write_char+0xce>
     a2c:	41 e0       	ldi	r20, 0x01	; 1
     a2e:	01 c0       	rjmp	.+2      	; 0xa32 <nokia_lcd_write_char+0xd0>
     a30:	40 e0       	ldi	r20, 0x00	; 0
     a32:	8d 0d       	add	r24, r13
     a34:	0e 94 93 04 	call	0x926	; 0x926 <nokia_lcd_set_pixel>
     a38:	e3 94       	inc	r14
     a3a:	db cf       	rjmp	.-74     	; 0x9f2 <nokia_lcd_write_char+0x90>
     a3c:	d3 94       	inc	r13
     a3e:	d3 cf       	rjmp	.-90     	; 0x9e6 <nokia_lcd_write_char+0x84>
     a40:	80 91 18 03 	lds	r24, 0x0318	; 0x800318 <nokia_lcd+0x1f8>
     a44:	91 e0       	ldi	r25, 0x01	; 1
     a46:	98 0f       	add	r25, r24
     a48:	8f 2d       	mov	r24, r15
     a4a:	88 0f       	add	r24, r24
     a4c:	88 0f       	add	r24, r24
     a4e:	8f 0d       	add	r24, r15
     a50:	89 0f       	add	r24, r25
     a52:	84 35       	cpi	r24, 0x54	; 84
     a54:	18 f4       	brcc	.+6      	; 0xa5c <nokia_lcd_write_char+0xfa>
     a56:	80 93 18 03 	sts	0x0318, r24	; 0x800318 <nokia_lcd+0x1f8>
     a5a:	0b c0       	rjmp	.+22     	; 0xa72 <nokia_lcd_write_char+0x110>
     a5c:	10 92 18 03 	sts	0x0318, r1	; 0x800318 <nokia_lcd+0x1f8>
     a60:	80 91 19 03 	lds	r24, 0x0319	; 0x800319 <nokia_lcd+0x1f9>
     a64:	8f 5f       	subi	r24, 0xFF	; 255
     a66:	97 e0       	ldi	r25, 0x07	; 7
     a68:	f9 9e       	mul	r15, r25
     a6a:	80 0d       	add	r24, r0
     a6c:	11 24       	eor	r1, r1
     a6e:	80 93 19 03 	sts	0x0319, r24	; 0x800319 <nokia_lcd+0x1f9>
     a72:	80 91 19 03 	lds	r24, 0x0319	; 0x800319 <nokia_lcd+0x1f9>
     a76:	80 33       	cpi	r24, 0x30	; 48
     a78:	20 f0       	brcs	.+8      	; 0xa82 <nokia_lcd_write_char+0x120>
     a7a:	10 92 18 03 	sts	0x0318, r1	; 0x800318 <nokia_lcd+0x1f8>
     a7e:	10 92 19 03 	sts	0x0319, r1	; 0x800319 <nokia_lcd+0x1f9>
     a82:	0f 90       	pop	r0
     a84:	0f 90       	pop	r0
     a86:	0f 90       	pop	r0
     a88:	0f 90       	pop	r0
     a8a:	0f 90       	pop	r0
     a8c:	df 91       	pop	r29
     a8e:	cf 91       	pop	r28
     a90:	1f 91       	pop	r17
     a92:	0f 91       	pop	r16
     a94:	ff 90       	pop	r15
     a96:	ef 90       	pop	r14
     a98:	df 90       	pop	r13
     a9a:	bf 90       	pop	r11
     a9c:	af 90       	pop	r10
     a9e:	9f 90       	pop	r9
     aa0:	8f 90       	pop	r8
     aa2:	08 95       	ret

00000aa4 <nokia_lcd_custom>:
     aa4:	80 32       	cpi	r24, 0x20	; 32
     aa6:	3c f4       	brge	.+14     	; 0xab6 <nokia_lcd_custom+0x12>
     aa8:	e8 2f       	mov	r30, r24
     aaa:	ee 0f       	add	r30, r30
     aac:	ff 0b       	sbc	r31, r31
     aae:	ec 5b       	subi	r30, 0xBC	; 188
     ab0:	fc 4f       	sbci	r31, 0xFC	; 252
     ab2:	71 83       	std	Z+1, r23	; 0x01
     ab4:	60 83       	st	Z, r22
     ab6:	08 95       	ret

00000ab8 <nokia_lcd_write_string>:
     ab8:	1f 93       	push	r17
     aba:	cf 93       	push	r28
     abc:	df 93       	push	r29
     abe:	16 2f       	mov	r17, r22
     ac0:	ec 01       	movw	r28, r24
     ac2:	89 91       	ld	r24, Y+
     ac4:	88 23       	and	r24, r24
     ac6:	21 f0       	breq	.+8      	; 0xad0 <nokia_lcd_write_string+0x18>
     ac8:	61 2f       	mov	r22, r17
     aca:	0e 94 b1 04 	call	0x962	; 0x962 <nokia_lcd_write_char>
     ace:	f9 cf       	rjmp	.-14     	; 0xac2 <nokia_lcd_write_string+0xa>
     ad0:	df 91       	pop	r29
     ad2:	cf 91       	pop	r28
     ad4:	1f 91       	pop	r17
     ad6:	08 95       	ret

00000ad8 <nokia_lcd_set_cursor>:
     ad8:	80 93 18 03 	sts	0x0318, r24	; 0x800318 <nokia_lcd+0x1f8>
     adc:	60 93 19 03 	sts	0x0319, r22	; 0x800319 <nokia_lcd+0x1f9>
     ae0:	08 95       	ret

00000ae2 <nokia_lcd_render>:
     ae2:	cf 93       	push	r28
     ae4:	df 93       	push	r29
     ae6:	80 e8       	ldi	r24, 0x80	; 128
     ae8:	0e 94 31 04 	call	0x862	; 0x862 <write_cmd>
     aec:	80 e4       	ldi	r24, 0x40	; 64
     aee:	0e 94 31 04 	call	0x862	; 0x862 <write_cmd>
     af2:	c0 e2       	ldi	r28, 0x20	; 32
     af4:	d1 e0       	ldi	r29, 0x01	; 1
     af6:	61 e0       	ldi	r22, 0x01	; 1
     af8:	89 91       	ld	r24, Y+
     afa:	0e 94 15 04 	call	0x82a	; 0x82a <write>
     afe:	83 e0       	ldi	r24, 0x03	; 3
     b00:	c8 31       	cpi	r28, 0x18	; 24
     b02:	d8 07       	cpc	r29, r24
     b04:	c1 f7       	brne	.-16     	; 0xaf6 <nokia_lcd_render+0x14>
     b06:	df 91       	pop	r29
     b08:	cf 91       	pop	r28
     b0a:	08 95       	ret

00000b0c <nokia_lcd_drawline>:
     b0c:	4f 92       	push	r4
     b0e:	5f 92       	push	r5
     b10:	6f 92       	push	r6
     b12:	7f 92       	push	r7
     b14:	8f 92       	push	r8
     b16:	9f 92       	push	r9
     b18:	af 92       	push	r10
     b1a:	bf 92       	push	r11
     b1c:	cf 92       	push	r12
     b1e:	df 92       	push	r13
     b20:	ef 92       	push	r14
     b22:	ff 92       	push	r15
     b24:	cf 93       	push	r28
     b26:	df 93       	push	r29
     b28:	cd b7       	in	r28, 0x3d	; 61
     b2a:	de b7       	in	r29, 0x3e	; 62
     b2c:	2e 97       	sbiw	r28, 0x0e	; 14
     b2e:	0f b6       	in	r0, 0x3f	; 63
     b30:	f8 94       	cli
     b32:	de bf       	out	0x3e, r29	; 62
     b34:	0f be       	out	0x3f, r0	; 63
     b36:	cd bf       	out	0x3d, r28	; 61
     b38:	8d 87       	std	Y+13, r24	; 0x0d
     b3a:	69 87       	std	Y+9, r22	; 0x09
     b3c:	f2 2e       	mov	r15, r18
     b3e:	64 2f       	mov	r22, r20
     b40:	70 e0       	ldi	r23, 0x00	; 0
     b42:	68 1b       	sub	r22, r24
     b44:	71 09       	sbc	r23, r1
     b46:	07 2e       	mov	r0, r23
     b48:	00 0c       	add	r0, r0
     b4a:	88 0b       	sbc	r24, r24
     b4c:	99 0b       	sbc	r25, r25
     b4e:	0e 94 52 08 	call	0x10a4	; 0x10a4 <__floatsisf>
     b52:	4b 01       	movw	r8, r22
     b54:	5c 01       	movw	r10, r24
     b56:	6f 2d       	mov	r22, r15
     b58:	70 e0       	ldi	r23, 0x00	; 0
     b5a:	29 85       	ldd	r18, Y+9	; 0x09
     b5c:	62 1b       	sub	r22, r18
     b5e:	71 09       	sbc	r23, r1
     b60:	07 2e       	mov	r0, r23
     b62:	00 0c       	add	r0, r0
     b64:	88 0b       	sbc	r24, r24
     b66:	99 0b       	sbc	r25, r25
     b68:	0e 94 52 08 	call	0x10a4	; 0x10a4 <__floatsisf>
     b6c:	6b 01       	movw	r12, r22
     b6e:	7c 01       	movw	r14, r24
     b70:	24 01       	movw	r4, r8
     b72:	35 01       	movw	r6, r10
     b74:	e8 94       	clt
     b76:	77 f8       	bld	r7, 7
     b78:	dc 01       	movw	r26, r24
     b7a:	cb 01       	movw	r24, r22
     b7c:	bf 77       	andi	r27, 0x7F	; 127
     b7e:	89 83       	std	Y+1, r24	; 0x01
     b80:	9a 83       	std	Y+2, r25	; 0x02
     b82:	ab 83       	std	Y+3, r26	; 0x03
     b84:	bc 83       	std	Y+4, r27	; 0x04
     b86:	9c 01       	movw	r18, r24
     b88:	ad 01       	movw	r20, r26
     b8a:	c3 01       	movw	r24, r6
     b8c:	b2 01       	movw	r22, r4
     b8e:	0e 94 de 08 	call	0x11bc	; 0x11bc <__gesf2>
     b92:	87 ff       	sbrs	r24, 7
     b94:	04 c0       	rjmp	.+8      	; 0xb9e <nokia_lcd_drawline+0x92>
     b96:	49 80       	ldd	r4, Y+1	; 0x01
     b98:	5a 80       	ldd	r5, Y+2	; 0x02
     b9a:	6b 80       	ldd	r6, Y+3	; 0x03
     b9c:	7c 80       	ldd	r7, Y+4	; 0x04
     b9e:	a3 01       	movw	r20, r6
     ba0:	92 01       	movw	r18, r4
     ba2:	c5 01       	movw	r24, r10
     ba4:	b4 01       	movw	r22, r8
     ba6:	0e 94 af 07 	call	0xf5e	; 0xf5e <__divsf3>
     baa:	69 83       	std	Y+1, r22	; 0x01
     bac:	7a 83       	std	Y+2, r23	; 0x02
     bae:	8b 83       	std	Y+3, r24	; 0x03
     bb0:	9c 83       	std	Y+4, r25	; 0x04
     bb2:	a3 01       	movw	r20, r6
     bb4:	92 01       	movw	r18, r4
     bb6:	c7 01       	movw	r24, r14
     bb8:	b6 01       	movw	r22, r12
     bba:	0e 94 af 07 	call	0xf5e	; 0xf5e <__divsf3>
     bbe:	6d 83       	std	Y+5, r22	; 0x05
     bc0:	7e 83       	std	Y+6, r23	; 0x06
     bc2:	8f 83       	std	Y+7, r24	; 0x07
     bc4:	98 87       	std	Y+8, r25	; 0x08
     bc6:	ad 85       	ldd	r26, Y+13	; 0x0d
     bc8:	6a 2f       	mov	r22, r26
     bca:	70 e0       	ldi	r23, 0x00	; 0
     bcc:	80 e0       	ldi	r24, 0x00	; 0
     bce:	90 e0       	ldi	r25, 0x00	; 0
     bd0:	0e 94 50 08 	call	0x10a0	; 0x10a0 <__floatunsisf>
     bd4:	6b 01       	movw	r12, r22
     bd6:	7c 01       	movw	r14, r24
     bd8:	b9 85       	ldd	r27, Y+9	; 0x09
     bda:	6b 2f       	mov	r22, r27
     bdc:	70 e0       	ldi	r23, 0x00	; 0
     bde:	80 e0       	ldi	r24, 0x00	; 0
     be0:	90 e0       	ldi	r25, 0x00	; 0
     be2:	0e 94 50 08 	call	0x10a0	; 0x10a0 <__floatunsisf>
     be6:	4b 01       	movw	r8, r22
     be8:	5c 01       	movw	r10, r24
     bea:	21 e0       	ldi	r18, 0x01	; 1
     bec:	30 e0       	ldi	r19, 0x00	; 0
     bee:	3e 87       	std	Y+14, r19	; 0x0e
     bf0:	2d 87       	std	Y+13, r18	; 0x0d
     bf2:	ad 85       	ldd	r26, Y+13	; 0x0d
     bf4:	be 85       	ldd	r27, Y+14	; 0x0e
     bf6:	bd 01       	movw	r22, r26
     bf8:	bb 0f       	add	r27, r27
     bfa:	88 0b       	sbc	r24, r24
     bfc:	99 0b       	sbc	r25, r25
     bfe:	0e 94 52 08 	call	0x10a4	; 0x10a4 <__floatsisf>
     c02:	9b 01       	movw	r18, r22
     c04:	ac 01       	movw	r20, r24
     c06:	c3 01       	movw	r24, r6
     c08:	b2 01       	movw	r22, r4
     c0a:	0e 94 de 08 	call	0x11bc	; 0x11bc <__gesf2>
     c0e:	87 fd       	sbrc	r24, 7
     c10:	2c c0       	rjmp	.+88     	; 0xc6a <nokia_lcd_drawline+0x15e>
     c12:	c5 01       	movw	r24, r10
     c14:	b4 01       	movw	r22, r8
     c16:	0e 94 21 08 	call	0x1042	; 0x1042 <__fixunssfsi>
     c1a:	69 87       	std	Y+9, r22	; 0x09
     c1c:	7a 87       	std	Y+10, r23	; 0x0a
     c1e:	8b 87       	std	Y+11, r24	; 0x0b
     c20:	9c 87       	std	Y+12, r25	; 0x0c
     c22:	c7 01       	movw	r24, r14
     c24:	b6 01       	movw	r22, r12
     c26:	0e 94 21 08 	call	0x1042	; 0x1042 <__fixunssfsi>
     c2a:	dc 01       	movw	r26, r24
     c2c:	cb 01       	movw	r24, r22
     c2e:	41 e0       	ldi	r20, 0x01	; 1
     c30:	69 85       	ldd	r22, Y+9	; 0x09
     c32:	0e 94 93 04 	call	0x926	; 0x926 <nokia_lcd_set_pixel>
     c36:	29 81       	ldd	r18, Y+1	; 0x01
     c38:	3a 81       	ldd	r19, Y+2	; 0x02
     c3a:	4b 81       	ldd	r20, Y+3	; 0x03
     c3c:	5c 81       	ldd	r21, Y+4	; 0x04
     c3e:	c7 01       	movw	r24, r14
     c40:	b6 01       	movw	r22, r12
     c42:	0e 94 43 07 	call	0xe86	; 0xe86 <__addsf3>
     c46:	6b 01       	movw	r12, r22
     c48:	7c 01       	movw	r14, r24
     c4a:	2d 81       	ldd	r18, Y+5	; 0x05
     c4c:	3e 81       	ldd	r19, Y+6	; 0x06
     c4e:	4f 81       	ldd	r20, Y+7	; 0x07
     c50:	58 85       	ldd	r21, Y+8	; 0x08
     c52:	c5 01       	movw	r24, r10
     c54:	b4 01       	movw	r22, r8
     c56:	0e 94 43 07 	call	0xe86	; 0xe86 <__addsf3>
     c5a:	4b 01       	movw	r8, r22
     c5c:	5c 01       	movw	r10, r24
     c5e:	8d 85       	ldd	r24, Y+13	; 0x0d
     c60:	9e 85       	ldd	r25, Y+14	; 0x0e
     c62:	01 96       	adiw	r24, 0x01	; 1
     c64:	9e 87       	std	Y+14, r25	; 0x0e
     c66:	8d 87       	std	Y+13, r24	; 0x0d
     c68:	c4 cf       	rjmp	.-120    	; 0xbf2 <nokia_lcd_drawline+0xe6>
     c6a:	2e 96       	adiw	r28, 0x0e	; 14
     c6c:	0f b6       	in	r0, 0x3f	; 63
     c6e:	f8 94       	cli
     c70:	de bf       	out	0x3e, r29	; 62
     c72:	0f be       	out	0x3f, r0	; 63
     c74:	cd bf       	out	0x3d, r28	; 61
     c76:	df 91       	pop	r29
     c78:	cf 91       	pop	r28
     c7a:	ff 90       	pop	r15
     c7c:	ef 90       	pop	r14
     c7e:	df 90       	pop	r13
     c80:	cf 90       	pop	r12
     c82:	bf 90       	pop	r11
     c84:	af 90       	pop	r10
     c86:	9f 90       	pop	r9
     c88:	8f 90       	pop	r8
     c8a:	7f 90       	pop	r7
     c8c:	6f 90       	pop	r6
     c8e:	5f 90       	pop	r5
     c90:	4f 90       	pop	r4
     c92:	08 95       	ret

00000c94 <nokia_lcd_drawrect>:
     c94:	0f 93       	push	r16
     c96:	1f 93       	push	r17
     c98:	cf 93       	push	r28
     c9a:	df 93       	push	r29
     c9c:	c8 2f       	mov	r28, r24
     c9e:	16 2f       	mov	r17, r22
     ca0:	04 2f       	mov	r16, r20
     ca2:	d2 2f       	mov	r29, r18
     ca4:	26 2f       	mov	r18, r22
     ca6:	0e 94 86 05 	call	0xb0c	; 0xb0c <nokia_lcd_drawline>
     caa:	2d 2f       	mov	r18, r29
     cac:	40 2f       	mov	r20, r16
     cae:	61 2f       	mov	r22, r17
     cb0:	80 2f       	mov	r24, r16
     cb2:	0e 94 86 05 	call	0xb0c	; 0xb0c <nokia_lcd_drawline>
     cb6:	2d 2f       	mov	r18, r29
     cb8:	4c 2f       	mov	r20, r28
     cba:	6d 2f       	mov	r22, r29
     cbc:	80 2f       	mov	r24, r16
     cbe:	0e 94 86 05 	call	0xb0c	; 0xb0c <nokia_lcd_drawline>
     cc2:	21 2f       	mov	r18, r17
     cc4:	4c 2f       	mov	r20, r28
     cc6:	6d 2f       	mov	r22, r29
     cc8:	8c 2f       	mov	r24, r28
     cca:	df 91       	pop	r29
     ccc:	cf 91       	pop	r28
     cce:	1f 91       	pop	r17
     cd0:	0f 91       	pop	r16
     cd2:	0c 94 86 05 	jmp	0xb0c	; 0xb0c <nokia_lcd_drawline>

00000cd6 <nokia_lcd_drawcircle>:
     cd6:	7f 92       	push	r7
     cd8:	8f 92       	push	r8
     cda:	9f 92       	push	r9
     cdc:	af 92       	push	r10
     cde:	bf 92       	push	r11
     ce0:	cf 92       	push	r12
     ce2:	df 92       	push	r13
     ce4:	ef 92       	push	r14
     ce6:	ff 92       	push	r15
     ce8:	0f 93       	push	r16
     cea:	1f 93       	push	r17
     cec:	cf 93       	push	r28
     cee:	df 93       	push	r29
     cf0:	d8 2e       	mov	r13, r24
     cf2:	c6 2e       	mov	r12, r22
     cf4:	c4 2f       	mov	r28, r20
     cf6:	d0 e0       	ldi	r29, 0x00	; 0
     cf8:	e1 2c       	mov	r14, r1
     cfa:	f1 2c       	mov	r15, r1
     cfc:	00 e0       	ldi	r16, 0x00	; 0
     cfe:	10 e0       	ldi	r17, 0x00	; 0
     d00:	41 e0       	ldi	r20, 0x01	; 1
     d02:	ac 2c       	mov	r10, r12
     d04:	a0 0e       	add	r10, r16
     d06:	6a 2d       	mov	r22, r10
     d08:	bc 2e       	mov	r11, r28
     d0a:	bd 0c       	add	r11, r13
     d0c:	8b 2d       	mov	r24, r11
     d0e:	0e 94 93 04 	call	0x926	; 0x926 <nokia_lcd_set_pixel>
     d12:	41 e0       	ldi	r20, 0x01	; 1
     d14:	8c 2e       	mov	r8, r28
     d16:	8c 0c       	add	r8, r12
     d18:	68 2d       	mov	r22, r8
     d1a:	9d 2c       	mov	r9, r13
     d1c:	90 0e       	add	r9, r16
     d1e:	89 2d       	mov	r24, r9
     d20:	0e 94 93 04 	call	0x926	; 0x926 <nokia_lcd_set_pixel>
     d24:	41 e0       	ldi	r20, 0x01	; 1
     d26:	68 2d       	mov	r22, r8
     d28:	7d 2c       	mov	r7, r13
     d2a:	70 1a       	sub	r7, r16
     d2c:	87 2d       	mov	r24, r7
     d2e:	0e 94 93 04 	call	0x926	; 0x926 <nokia_lcd_set_pixel>
     d32:	41 e0       	ldi	r20, 0x01	; 1
     d34:	6a 2d       	mov	r22, r10
     d36:	8d 2c       	mov	r8, r13
     d38:	8c 1a       	sub	r8, r28
     d3a:	88 2d       	mov	r24, r8
     d3c:	0e 94 93 04 	call	0x926	; 0x926 <nokia_lcd_set_pixel>
     d40:	41 e0       	ldi	r20, 0x01	; 1
     d42:	ac 2c       	mov	r10, r12
     d44:	a0 1a       	sub	r10, r16
     d46:	6a 2d       	mov	r22, r10
     d48:	88 2d       	mov	r24, r8
     d4a:	0e 94 93 04 	call	0x926	; 0x926 <nokia_lcd_set_pixel>
     d4e:	41 e0       	ldi	r20, 0x01	; 1
     d50:	8c 2c       	mov	r8, r12
     d52:	8c 1a       	sub	r8, r28
     d54:	68 2d       	mov	r22, r8
     d56:	87 2d       	mov	r24, r7
     d58:	0e 94 93 04 	call	0x926	; 0x926 <nokia_lcd_set_pixel>
     d5c:	41 e0       	ldi	r20, 0x01	; 1
     d5e:	68 2d       	mov	r22, r8
     d60:	89 2d       	mov	r24, r9
     d62:	0e 94 93 04 	call	0x926	; 0x926 <nokia_lcd_set_pixel>
     d66:	41 e0       	ldi	r20, 0x01	; 1
     d68:	6a 2d       	mov	r22, r10
     d6a:	8b 2d       	mov	r24, r11
     d6c:	0e 94 93 04 	call	0x926	; 0x926 <nokia_lcd_set_pixel>
     d70:	1e 14       	cp	r1, r14
     d72:	1f 04       	cpc	r1, r15
     d74:	5c f0       	brlt	.+22     	; 0xd8c <nokia_lcd_drawcircle+0xb6>
     d76:	0f 5f       	subi	r16, 0xFF	; 255
     d78:	1f 4f       	sbci	r17, 0xFF	; 255
     d7a:	c8 01       	movw	r24, r16
     d7c:	88 0f       	add	r24, r24
     d7e:	99 1f       	adc	r25, r25
     d80:	01 96       	adiw	r24, 0x01	; 1
     d82:	e8 0e       	add	r14, r24
     d84:	f9 1e       	adc	r15, r25
     d86:	1e 14       	cp	r1, r14
     d88:	1f 04       	cpc	r1, r15
     d8a:	3c f4       	brge	.+14     	; 0xd9a <nokia_lcd_drawcircle+0xc4>
     d8c:	21 97       	sbiw	r28, 0x01	; 1
     d8e:	ce 01       	movw	r24, r28
     d90:	88 0f       	add	r24, r24
     d92:	99 1f       	adc	r25, r25
     d94:	01 96       	adiw	r24, 0x01	; 1
     d96:	e8 1a       	sub	r14, r24
     d98:	f9 0a       	sbc	r15, r25
     d9a:	c0 17       	cp	r28, r16
     d9c:	d1 07       	cpc	r29, r17
     d9e:	0c f0       	brlt	.+2      	; 0xda2 <nokia_lcd_drawcircle+0xcc>
     da0:	af cf       	rjmp	.-162    	; 0xd00 <nokia_lcd_drawcircle+0x2a>
     da2:	df 91       	pop	r29
     da4:	cf 91       	pop	r28
     da6:	1f 91       	pop	r17
     da8:	0f 91       	pop	r16
     daa:	ff 90       	pop	r15
     dac:	ef 90       	pop	r14
     dae:	df 90       	pop	r13
     db0:	cf 90       	pop	r12
     db2:	bf 90       	pop	r11
     db4:	af 90       	pop	r10
     db6:	9f 90       	pop	r9
     db8:	8f 90       	pop	r8
     dba:	7f 90       	pop	r7
     dbc:	08 95       	ret

00000dbe <main>:
     dbe:	8a b1       	in	r24, 0x0a	; 10
     dc0:	87 70       	andi	r24, 0x07	; 7
     dc2:	8a b9       	out	0x0a, r24	; 10
     dc4:	8b b1       	in	r24, 0x0b	; 11
     dc6:	88 6f       	ori	r24, 0xF8	; 248
     dc8:	8b b9       	out	0x0b, r24	; 11
     dca:	80 91 68 00 	lds	r24, 0x0068	; 0x800068 <__DATA_REGION_ORIGIN__+0x8>
     dce:	86 60       	ori	r24, 0x06	; 6
     dd0:	80 93 68 00 	sts	0x0068, r24	; 0x800068 <__DATA_REGION_ORIGIN__+0x8>
     dd4:	80 91 6d 00 	lds	r24, 0x006D	; 0x80006d <__DATA_REGION_ORIGIN__+0xd>
     dd8:	88 6f       	ori	r24, 0xF8	; 248
     dda:	80 93 6d 00 	sts	0x006D, r24	; 0x80006d <__DATA_REGION_ORIGIN__+0xd>
     dde:	8a b1       	in	r24, 0x0a	; 10
     de0:	87 60       	ori	r24, 0x07	; 7
     de2:	8a b9       	out	0x0a, r24	; 10
     de4:	87 b1       	in	r24, 0x07	; 7
     de6:	8f 64       	ori	r24, 0x4F	; 79
     de8:	87 b9       	out	0x07, r24	; 7
     dea:	80 91 81 00 	lds	r24, 0x0081	; 0x800081 <__DATA_REGION_ORIGIN__+0x21>
     dee:	8d 60       	ori	r24, 0x0D	; 13
     df0:	80 93 81 00 	sts	0x0081, r24	; 0x800081 <__DATA_REGION_ORIGIN__+0x21>
     df4:	8d e3       	ldi	r24, 0x3D	; 61
     df6:	80 93 89 00 	sts	0x0089, r24	; 0x800089 <__DATA_REGION_ORIGIN__+0x29>
     dfa:	88 e0       	ldi	r24, 0x08	; 8
     dfc:	80 93 88 00 	sts	0x0088, r24	; 0x800088 <__DATA_REGION_ORIGIN__+0x28>
     e00:	80 91 6f 00 	lds	r24, 0x006F	; 0x80006f <__DATA_REGION_ORIGIN__+0xf>
     e04:	82 60       	ori	r24, 0x02	; 2
     e06:	80 93 6f 00 	sts	0x006F, r24	; 0x80006f <__DATA_REGION_ORIGIN__+0xf>
     e0a:	78 94       	sei
     e0c:	0e 94 34 04 	call	0x868	; 0x868 <nokia_lcd_init>
     e10:	81 e0       	ldi	r24, 0x01	; 1
     e12:	0e 94 8c 04 	call	0x918	; 0x918 <nokia_lcd_power>
     e16:	0e 94 77 04 	call	0x8ee	; 0x8ee <nokia_lcd_clear>
     e1a:	ff cf       	rjmp	.-2      	; 0xe1a <main+0x5c>

00000e1c <__udivmodqi4>:
     e1c:	99 1b       	sub	r25, r25
     e1e:	79 e0       	ldi	r23, 0x09	; 9
     e20:	04 c0       	rjmp	.+8      	; 0xe2a <__udivmodqi4_ep>

00000e22 <__udivmodqi4_loop>:
     e22:	99 1f       	adc	r25, r25
     e24:	96 17       	cp	r25, r22
     e26:	08 f0       	brcs	.+2      	; 0xe2a <__udivmodqi4_ep>
     e28:	96 1b       	sub	r25, r22

00000e2a <__udivmodqi4_ep>:
     e2a:	88 1f       	adc	r24, r24
     e2c:	7a 95       	dec	r23
     e2e:	c9 f7       	brne	.-14     	; 0xe22 <__udivmodqi4_loop>
     e30:	80 95       	com	r24
     e32:	08 95       	ret

00000e34 <__divmodhi4>:
     e34:	97 fb       	bst	r25, 7
     e36:	07 2e       	mov	r0, r23
     e38:	16 f4       	brtc	.+4      	; 0xe3e <__divmodhi4+0xa>
     e3a:	00 94       	com	r0
     e3c:	07 d0       	rcall	.+14     	; 0xe4c <__divmodhi4_neg1>
     e3e:	77 fd       	sbrc	r23, 7
     e40:	09 d0       	rcall	.+18     	; 0xe54 <__divmodhi4_neg2>
     e42:	0e 94 2e 07 	call	0xe5c	; 0xe5c <__udivmodhi4>
     e46:	07 fc       	sbrc	r0, 7
     e48:	05 d0       	rcall	.+10     	; 0xe54 <__divmodhi4_neg2>
     e4a:	3e f4       	brtc	.+14     	; 0xe5a <__divmodhi4_exit>

00000e4c <__divmodhi4_neg1>:
     e4c:	90 95       	com	r25
     e4e:	81 95       	neg	r24
     e50:	9f 4f       	sbci	r25, 0xFF	; 255
     e52:	08 95       	ret

00000e54 <__divmodhi4_neg2>:
     e54:	70 95       	com	r23
     e56:	61 95       	neg	r22
     e58:	7f 4f       	sbci	r23, 0xFF	; 255

00000e5a <__divmodhi4_exit>:
     e5a:	08 95       	ret

00000e5c <__udivmodhi4>:
     e5c:	aa 1b       	sub	r26, r26
     e5e:	bb 1b       	sub	r27, r27
     e60:	51 e1       	ldi	r21, 0x11	; 17
     e62:	07 c0       	rjmp	.+14     	; 0xe72 <__udivmodhi4_ep>

00000e64 <__udivmodhi4_loop>:
     e64:	aa 1f       	adc	r26, r26
     e66:	bb 1f       	adc	r27, r27
     e68:	a6 17       	cp	r26, r22
     e6a:	b7 07       	cpc	r27, r23
     e6c:	10 f0       	brcs	.+4      	; 0xe72 <__udivmodhi4_ep>
     e6e:	a6 1b       	sub	r26, r22
     e70:	b7 0b       	sbc	r27, r23

00000e72 <__udivmodhi4_ep>:
     e72:	88 1f       	adc	r24, r24
     e74:	99 1f       	adc	r25, r25
     e76:	5a 95       	dec	r21
     e78:	a9 f7       	brne	.-22     	; 0xe64 <__udivmodhi4_loop>
     e7a:	80 95       	com	r24
     e7c:	90 95       	com	r25
     e7e:	bc 01       	movw	r22, r24
     e80:	cd 01       	movw	r24, r26
     e82:	08 95       	ret

00000e84 <__subsf3>:
     e84:	50 58       	subi	r21, 0x80	; 128

00000e86 <__addsf3>:
     e86:	bb 27       	eor	r27, r27
     e88:	aa 27       	eor	r26, r26
     e8a:	0e 94 5a 07 	call	0xeb4	; 0xeb4 <__addsf3x>
     e8e:	0c 94 a4 08 	jmp	0x1148	; 0x1148 <__fp_round>
     e92:	0e 94 96 08 	call	0x112c	; 0x112c <__fp_pscA>
     e96:	38 f0       	brcs	.+14     	; 0xea6 <__addsf3+0x20>
     e98:	0e 94 9d 08 	call	0x113a	; 0x113a <__fp_pscB>
     e9c:	20 f0       	brcs	.+8      	; 0xea6 <__addsf3+0x20>
     e9e:	39 f4       	brne	.+14     	; 0xeae <__addsf3+0x28>
     ea0:	9f 3f       	cpi	r25, 0xFF	; 255
     ea2:	19 f4       	brne	.+6      	; 0xeaa <__addsf3+0x24>
     ea4:	26 f4       	brtc	.+8      	; 0xeae <__addsf3+0x28>
     ea6:	0c 94 93 08 	jmp	0x1126	; 0x1126 <__fp_nan>
     eaa:	0e f4       	brtc	.+2      	; 0xeae <__addsf3+0x28>
     eac:	e0 95       	com	r30
     eae:	e7 fb       	bst	r30, 7
     eb0:	0c 94 8d 08 	jmp	0x111a	; 0x111a <__fp_inf>

00000eb4 <__addsf3x>:
     eb4:	e9 2f       	mov	r30, r25
     eb6:	0e 94 b5 08 	call	0x116a	; 0x116a <__fp_split3>
     eba:	58 f3       	brcs	.-42     	; 0xe92 <__addsf3+0xc>
     ebc:	ba 17       	cp	r27, r26
     ebe:	62 07       	cpc	r22, r18
     ec0:	73 07       	cpc	r23, r19
     ec2:	84 07       	cpc	r24, r20
     ec4:	95 07       	cpc	r25, r21
     ec6:	20 f0       	brcs	.+8      	; 0xed0 <__addsf3x+0x1c>
     ec8:	79 f4       	brne	.+30     	; 0xee8 <__addsf3x+0x34>
     eca:	a6 f5       	brtc	.+104    	; 0xf34 <__addsf3x+0x80>
     ecc:	0c 94 d7 08 	jmp	0x11ae	; 0x11ae <__fp_zero>
     ed0:	0e f4       	brtc	.+2      	; 0xed4 <__addsf3x+0x20>
     ed2:	e0 95       	com	r30
     ed4:	0b 2e       	mov	r0, r27
     ed6:	ba 2f       	mov	r27, r26
     ed8:	a0 2d       	mov	r26, r0
     eda:	0b 01       	movw	r0, r22
     edc:	b9 01       	movw	r22, r18
     ede:	90 01       	movw	r18, r0
     ee0:	0c 01       	movw	r0, r24
     ee2:	ca 01       	movw	r24, r20
     ee4:	a0 01       	movw	r20, r0
     ee6:	11 24       	eor	r1, r1
     ee8:	ff 27       	eor	r31, r31
     eea:	59 1b       	sub	r21, r25
     eec:	99 f0       	breq	.+38     	; 0xf14 <__addsf3x+0x60>
     eee:	59 3f       	cpi	r21, 0xF9	; 249
     ef0:	50 f4       	brcc	.+20     	; 0xf06 <__addsf3x+0x52>
     ef2:	50 3e       	cpi	r21, 0xE0	; 224
     ef4:	68 f1       	brcs	.+90     	; 0xf50 <__addsf3x+0x9c>
     ef6:	1a 16       	cp	r1, r26
     ef8:	f0 40       	sbci	r31, 0x00	; 0
     efa:	a2 2f       	mov	r26, r18
     efc:	23 2f       	mov	r18, r19
     efe:	34 2f       	mov	r19, r20
     f00:	44 27       	eor	r20, r20
     f02:	58 5f       	subi	r21, 0xF8	; 248
     f04:	f3 cf       	rjmp	.-26     	; 0xeec <__addsf3x+0x38>
     f06:	46 95       	lsr	r20
     f08:	37 95       	ror	r19
     f0a:	27 95       	ror	r18
     f0c:	a7 95       	ror	r26
     f0e:	f0 40       	sbci	r31, 0x00	; 0
     f10:	53 95       	inc	r21
     f12:	c9 f7       	brne	.-14     	; 0xf06 <__addsf3x+0x52>
     f14:	7e f4       	brtc	.+30     	; 0xf34 <__addsf3x+0x80>
     f16:	1f 16       	cp	r1, r31
     f18:	ba 0b       	sbc	r27, r26
     f1a:	62 0b       	sbc	r22, r18
     f1c:	73 0b       	sbc	r23, r19
     f1e:	84 0b       	sbc	r24, r20
     f20:	ba f0       	brmi	.+46     	; 0xf50 <__addsf3x+0x9c>
     f22:	91 50       	subi	r25, 0x01	; 1
     f24:	a1 f0       	breq	.+40     	; 0xf4e <__addsf3x+0x9a>
     f26:	ff 0f       	add	r31, r31
     f28:	bb 1f       	adc	r27, r27
     f2a:	66 1f       	adc	r22, r22
     f2c:	77 1f       	adc	r23, r23
     f2e:	88 1f       	adc	r24, r24
     f30:	c2 f7       	brpl	.-16     	; 0xf22 <__addsf3x+0x6e>
     f32:	0e c0       	rjmp	.+28     	; 0xf50 <__addsf3x+0x9c>
     f34:	ba 0f       	add	r27, r26
     f36:	62 1f       	adc	r22, r18
     f38:	73 1f       	adc	r23, r19
     f3a:	84 1f       	adc	r24, r20
     f3c:	48 f4       	brcc	.+18     	; 0xf50 <__addsf3x+0x9c>
     f3e:	87 95       	ror	r24
     f40:	77 95       	ror	r23
     f42:	67 95       	ror	r22
     f44:	b7 95       	ror	r27
     f46:	f7 95       	ror	r31
     f48:	9e 3f       	cpi	r25, 0xFE	; 254
     f4a:	08 f0       	brcs	.+2      	; 0xf4e <__addsf3x+0x9a>
     f4c:	b0 cf       	rjmp	.-160    	; 0xeae <__addsf3+0x28>
     f4e:	93 95       	inc	r25
     f50:	88 0f       	add	r24, r24
     f52:	08 f0       	brcs	.+2      	; 0xf56 <__addsf3x+0xa2>
     f54:	99 27       	eor	r25, r25
     f56:	ee 0f       	add	r30, r30
     f58:	97 95       	ror	r25
     f5a:	87 95       	ror	r24
     f5c:	08 95       	ret

00000f5e <__divsf3>:
     f5e:	0e 94 c3 07 	call	0xf86	; 0xf86 <__divsf3x>
     f62:	0c 94 a4 08 	jmp	0x1148	; 0x1148 <__fp_round>
     f66:	0e 94 9d 08 	call	0x113a	; 0x113a <__fp_pscB>
     f6a:	58 f0       	brcs	.+22     	; 0xf82 <__divsf3+0x24>
     f6c:	0e 94 96 08 	call	0x112c	; 0x112c <__fp_pscA>
     f70:	40 f0       	brcs	.+16     	; 0xf82 <__divsf3+0x24>
     f72:	29 f4       	brne	.+10     	; 0xf7e <__divsf3+0x20>
     f74:	5f 3f       	cpi	r21, 0xFF	; 255
     f76:	29 f0       	breq	.+10     	; 0xf82 <__divsf3+0x24>
     f78:	0c 94 8d 08 	jmp	0x111a	; 0x111a <__fp_inf>
     f7c:	51 11       	cpse	r21, r1
     f7e:	0c 94 d8 08 	jmp	0x11b0	; 0x11b0 <__fp_szero>
     f82:	0c 94 93 08 	jmp	0x1126	; 0x1126 <__fp_nan>

00000f86 <__divsf3x>:
     f86:	0e 94 b5 08 	call	0x116a	; 0x116a <__fp_split3>
     f8a:	68 f3       	brcs	.-38     	; 0xf66 <__divsf3+0x8>

00000f8c <__divsf3_pse>:
     f8c:	99 23       	and	r25, r25
     f8e:	b1 f3       	breq	.-20     	; 0xf7c <__divsf3+0x1e>
     f90:	55 23       	and	r21, r21
     f92:	91 f3       	breq	.-28     	; 0xf78 <__divsf3+0x1a>
     f94:	95 1b       	sub	r25, r21
     f96:	55 0b       	sbc	r21, r21
     f98:	bb 27       	eor	r27, r27
     f9a:	aa 27       	eor	r26, r26
     f9c:	62 17       	cp	r22, r18
     f9e:	73 07       	cpc	r23, r19
     fa0:	84 07       	cpc	r24, r20
     fa2:	38 f0       	brcs	.+14     	; 0xfb2 <__divsf3_pse+0x26>
     fa4:	9f 5f       	subi	r25, 0xFF	; 255
     fa6:	5f 4f       	sbci	r21, 0xFF	; 255
     fa8:	22 0f       	add	r18, r18
     faa:	33 1f       	adc	r19, r19
     fac:	44 1f       	adc	r20, r20
     fae:	aa 1f       	adc	r26, r26
     fb0:	a9 f3       	breq	.-22     	; 0xf9c <__divsf3_pse+0x10>
     fb2:	35 d0       	rcall	.+106    	; 0x101e <__divsf3_pse+0x92>
     fb4:	0e 2e       	mov	r0, r30
     fb6:	3a f0       	brmi	.+14     	; 0xfc6 <__divsf3_pse+0x3a>
     fb8:	e0 e8       	ldi	r30, 0x80	; 128
     fba:	32 d0       	rcall	.+100    	; 0x1020 <__divsf3_pse+0x94>
     fbc:	91 50       	subi	r25, 0x01	; 1
     fbe:	50 40       	sbci	r21, 0x00	; 0
     fc0:	e6 95       	lsr	r30
     fc2:	00 1c       	adc	r0, r0
     fc4:	ca f7       	brpl	.-14     	; 0xfb8 <__divsf3_pse+0x2c>
     fc6:	2b d0       	rcall	.+86     	; 0x101e <__divsf3_pse+0x92>
     fc8:	fe 2f       	mov	r31, r30
     fca:	29 d0       	rcall	.+82     	; 0x101e <__divsf3_pse+0x92>
     fcc:	66 0f       	add	r22, r22
     fce:	77 1f       	adc	r23, r23
     fd0:	88 1f       	adc	r24, r24
     fd2:	bb 1f       	adc	r27, r27
     fd4:	26 17       	cp	r18, r22
     fd6:	37 07       	cpc	r19, r23
     fd8:	48 07       	cpc	r20, r24
     fda:	ab 07       	cpc	r26, r27
     fdc:	b0 e8       	ldi	r27, 0x80	; 128
     fde:	09 f0       	breq	.+2      	; 0xfe2 <__divsf3_pse+0x56>
     fe0:	bb 0b       	sbc	r27, r27
     fe2:	80 2d       	mov	r24, r0
     fe4:	bf 01       	movw	r22, r30
     fe6:	ff 27       	eor	r31, r31
     fe8:	93 58       	subi	r25, 0x83	; 131
     fea:	5f 4f       	sbci	r21, 0xFF	; 255
     fec:	3a f0       	brmi	.+14     	; 0xffc <__divsf3_pse+0x70>
     fee:	9e 3f       	cpi	r25, 0xFE	; 254
     ff0:	51 05       	cpc	r21, r1
     ff2:	78 f0       	brcs	.+30     	; 0x1012 <__divsf3_pse+0x86>
     ff4:	0c 94 8d 08 	jmp	0x111a	; 0x111a <__fp_inf>
     ff8:	0c 94 d8 08 	jmp	0x11b0	; 0x11b0 <__fp_szero>
     ffc:	5f 3f       	cpi	r21, 0xFF	; 255
     ffe:	e4 f3       	brlt	.-8      	; 0xff8 <__divsf3_pse+0x6c>
    1000:	98 3e       	cpi	r25, 0xE8	; 232
    1002:	d4 f3       	brlt	.-12     	; 0xff8 <__divsf3_pse+0x6c>
    1004:	86 95       	lsr	r24
    1006:	77 95       	ror	r23
    1008:	67 95       	ror	r22
    100a:	b7 95       	ror	r27
    100c:	f7 95       	ror	r31
    100e:	9f 5f       	subi	r25, 0xFF	; 255
    1010:	c9 f7       	brne	.-14     	; 0x1004 <__divsf3_pse+0x78>
    1012:	88 0f       	add	r24, r24
    1014:	91 1d       	adc	r25, r1
    1016:	96 95       	lsr	r25
    1018:	87 95       	ror	r24
    101a:	97 f9       	bld	r25, 7
    101c:	08 95       	ret
    101e:	e1 e0       	ldi	r30, 0x01	; 1
    1020:	66 0f       	add	r22, r22
    1022:	77 1f       	adc	r23, r23
    1024:	88 1f       	adc	r24, r24
    1026:	bb 1f       	adc	r27, r27
    1028:	62 17       	cp	r22, r18
    102a:	73 07       	cpc	r23, r19
    102c:	84 07       	cpc	r24, r20
    102e:	ba 07       	cpc	r27, r26
    1030:	20 f0       	brcs	.+8      	; 0x103a <__divsf3_pse+0xae>
    1032:	62 1b       	sub	r22, r18
    1034:	73 0b       	sbc	r23, r19
    1036:	84 0b       	sbc	r24, r20
    1038:	ba 0b       	sbc	r27, r26
    103a:	ee 1f       	adc	r30, r30
    103c:	88 f7       	brcc	.-30     	; 0x1020 <__divsf3_pse+0x94>
    103e:	e0 95       	com	r30
    1040:	08 95       	ret

00001042 <__fixunssfsi>:
    1042:	0e 94 bd 08 	call	0x117a	; 0x117a <__fp_splitA>
    1046:	88 f0       	brcs	.+34     	; 0x106a <__fixunssfsi+0x28>
    1048:	9f 57       	subi	r25, 0x7F	; 127
    104a:	98 f0       	brcs	.+38     	; 0x1072 <__fixunssfsi+0x30>
    104c:	b9 2f       	mov	r27, r25
    104e:	99 27       	eor	r25, r25
    1050:	b7 51       	subi	r27, 0x17	; 23
    1052:	b0 f0       	brcs	.+44     	; 0x1080 <__fixunssfsi+0x3e>
    1054:	e1 f0       	breq	.+56     	; 0x108e <__fixunssfsi+0x4c>
    1056:	66 0f       	add	r22, r22
    1058:	77 1f       	adc	r23, r23
    105a:	88 1f       	adc	r24, r24
    105c:	99 1f       	adc	r25, r25
    105e:	1a f0       	brmi	.+6      	; 0x1066 <__fixunssfsi+0x24>
    1060:	ba 95       	dec	r27
    1062:	c9 f7       	brne	.-14     	; 0x1056 <__fixunssfsi+0x14>
    1064:	14 c0       	rjmp	.+40     	; 0x108e <__fixunssfsi+0x4c>
    1066:	b1 30       	cpi	r27, 0x01	; 1
    1068:	91 f0       	breq	.+36     	; 0x108e <__fixunssfsi+0x4c>
    106a:	0e 94 d7 08 	call	0x11ae	; 0x11ae <__fp_zero>
    106e:	b1 e0       	ldi	r27, 0x01	; 1
    1070:	08 95       	ret
    1072:	0c 94 d7 08 	jmp	0x11ae	; 0x11ae <__fp_zero>
    1076:	67 2f       	mov	r22, r23
    1078:	78 2f       	mov	r23, r24
    107a:	88 27       	eor	r24, r24
    107c:	b8 5f       	subi	r27, 0xF8	; 248
    107e:	39 f0       	breq	.+14     	; 0x108e <__fixunssfsi+0x4c>
    1080:	b9 3f       	cpi	r27, 0xF9	; 249
    1082:	cc f3       	brlt	.-14     	; 0x1076 <__fixunssfsi+0x34>
    1084:	86 95       	lsr	r24
    1086:	77 95       	ror	r23
    1088:	67 95       	ror	r22
    108a:	b3 95       	inc	r27
    108c:	d9 f7       	brne	.-10     	; 0x1084 <__fixunssfsi+0x42>
    108e:	3e f4       	brtc	.+14     	; 0x109e <__fixunssfsi+0x5c>
    1090:	90 95       	com	r25
    1092:	80 95       	com	r24
    1094:	70 95       	com	r23
    1096:	61 95       	neg	r22
    1098:	7f 4f       	sbci	r23, 0xFF	; 255
    109a:	8f 4f       	sbci	r24, 0xFF	; 255
    109c:	9f 4f       	sbci	r25, 0xFF	; 255
    109e:	08 95       	ret

000010a0 <__floatunsisf>:
    10a0:	e8 94       	clt
    10a2:	09 c0       	rjmp	.+18     	; 0x10b6 <__floatsisf+0x12>

000010a4 <__floatsisf>:
    10a4:	97 fb       	bst	r25, 7
    10a6:	3e f4       	brtc	.+14     	; 0x10b6 <__floatsisf+0x12>
    10a8:	90 95       	com	r25
    10aa:	80 95       	com	r24
    10ac:	70 95       	com	r23
    10ae:	61 95       	neg	r22
    10b0:	7f 4f       	sbci	r23, 0xFF	; 255
    10b2:	8f 4f       	sbci	r24, 0xFF	; 255
    10b4:	9f 4f       	sbci	r25, 0xFF	; 255
    10b6:	99 23       	and	r25, r25
    10b8:	a9 f0       	breq	.+42     	; 0x10e4 <__floatsisf+0x40>
    10ba:	f9 2f       	mov	r31, r25
    10bc:	96 e9       	ldi	r25, 0x96	; 150
    10be:	bb 27       	eor	r27, r27
    10c0:	93 95       	inc	r25
    10c2:	f6 95       	lsr	r31
    10c4:	87 95       	ror	r24
    10c6:	77 95       	ror	r23
    10c8:	67 95       	ror	r22
    10ca:	b7 95       	ror	r27
    10cc:	f1 11       	cpse	r31, r1
    10ce:	f8 cf       	rjmp	.-16     	; 0x10c0 <__floatsisf+0x1c>
    10d0:	fa f4       	brpl	.+62     	; 0x1110 <__floatsisf+0x6c>
    10d2:	bb 0f       	add	r27, r27
    10d4:	11 f4       	brne	.+4      	; 0x10da <__floatsisf+0x36>
    10d6:	60 ff       	sbrs	r22, 0
    10d8:	1b c0       	rjmp	.+54     	; 0x1110 <__floatsisf+0x6c>
    10da:	6f 5f       	subi	r22, 0xFF	; 255
    10dc:	7f 4f       	sbci	r23, 0xFF	; 255
    10de:	8f 4f       	sbci	r24, 0xFF	; 255
    10e0:	9f 4f       	sbci	r25, 0xFF	; 255
    10e2:	16 c0       	rjmp	.+44     	; 0x1110 <__floatsisf+0x6c>
    10e4:	88 23       	and	r24, r24
    10e6:	11 f0       	breq	.+4      	; 0x10ec <__floatsisf+0x48>
    10e8:	96 e9       	ldi	r25, 0x96	; 150
    10ea:	11 c0       	rjmp	.+34     	; 0x110e <__floatsisf+0x6a>
    10ec:	77 23       	and	r23, r23
    10ee:	21 f0       	breq	.+8      	; 0x10f8 <__floatsisf+0x54>
    10f0:	9e e8       	ldi	r25, 0x8E	; 142
    10f2:	87 2f       	mov	r24, r23
    10f4:	76 2f       	mov	r23, r22
    10f6:	05 c0       	rjmp	.+10     	; 0x1102 <__floatsisf+0x5e>
    10f8:	66 23       	and	r22, r22
    10fa:	71 f0       	breq	.+28     	; 0x1118 <__floatsisf+0x74>
    10fc:	96 e8       	ldi	r25, 0x86	; 134
    10fe:	86 2f       	mov	r24, r22
    1100:	70 e0       	ldi	r23, 0x00	; 0
    1102:	60 e0       	ldi	r22, 0x00	; 0
    1104:	2a f0       	brmi	.+10     	; 0x1110 <__floatsisf+0x6c>
    1106:	9a 95       	dec	r25
    1108:	66 0f       	add	r22, r22
    110a:	77 1f       	adc	r23, r23
    110c:	88 1f       	adc	r24, r24
    110e:	da f7       	brpl	.-10     	; 0x1106 <__floatsisf+0x62>
    1110:	88 0f       	add	r24, r24
    1112:	96 95       	lsr	r25
    1114:	87 95       	ror	r24
    1116:	97 f9       	bld	r25, 7
    1118:	08 95       	ret

0000111a <__fp_inf>:
    111a:	97 f9       	bld	r25, 7
    111c:	9f 67       	ori	r25, 0x7F	; 127
    111e:	80 e8       	ldi	r24, 0x80	; 128
    1120:	70 e0       	ldi	r23, 0x00	; 0
    1122:	60 e0       	ldi	r22, 0x00	; 0
    1124:	08 95       	ret

00001126 <__fp_nan>:
    1126:	9f ef       	ldi	r25, 0xFF	; 255
    1128:	80 ec       	ldi	r24, 0xC0	; 192
    112a:	08 95       	ret

0000112c <__fp_pscA>:
    112c:	00 24       	eor	r0, r0
    112e:	0a 94       	dec	r0
    1130:	16 16       	cp	r1, r22
    1132:	17 06       	cpc	r1, r23
    1134:	18 06       	cpc	r1, r24
    1136:	09 06       	cpc	r0, r25
    1138:	08 95       	ret

0000113a <__fp_pscB>:
    113a:	00 24       	eor	r0, r0
    113c:	0a 94       	dec	r0
    113e:	12 16       	cp	r1, r18
    1140:	13 06       	cpc	r1, r19
    1142:	14 06       	cpc	r1, r20
    1144:	05 06       	cpc	r0, r21
    1146:	08 95       	ret

00001148 <__fp_round>:
    1148:	09 2e       	mov	r0, r25
    114a:	03 94       	inc	r0
    114c:	00 0c       	add	r0, r0
    114e:	11 f4       	brne	.+4      	; 0x1154 <__fp_round+0xc>
    1150:	88 23       	and	r24, r24
    1152:	52 f0       	brmi	.+20     	; 0x1168 <__fp_round+0x20>
    1154:	bb 0f       	add	r27, r27
    1156:	40 f4       	brcc	.+16     	; 0x1168 <__fp_round+0x20>
    1158:	bf 2b       	or	r27, r31
    115a:	11 f4       	brne	.+4      	; 0x1160 <__fp_round+0x18>
    115c:	60 ff       	sbrs	r22, 0
    115e:	04 c0       	rjmp	.+8      	; 0x1168 <__fp_round+0x20>
    1160:	6f 5f       	subi	r22, 0xFF	; 255
    1162:	7f 4f       	sbci	r23, 0xFF	; 255
    1164:	8f 4f       	sbci	r24, 0xFF	; 255
    1166:	9f 4f       	sbci	r25, 0xFF	; 255
    1168:	08 95       	ret

0000116a <__fp_split3>:
    116a:	57 fd       	sbrc	r21, 7
    116c:	90 58       	subi	r25, 0x80	; 128
    116e:	44 0f       	add	r20, r20
    1170:	55 1f       	adc	r21, r21
    1172:	59 f0       	breq	.+22     	; 0x118a <__fp_splitA+0x10>
    1174:	5f 3f       	cpi	r21, 0xFF	; 255
    1176:	71 f0       	breq	.+28     	; 0x1194 <__fp_splitA+0x1a>
    1178:	47 95       	ror	r20

0000117a <__fp_splitA>:
    117a:	88 0f       	add	r24, r24
    117c:	97 fb       	bst	r25, 7
    117e:	99 1f       	adc	r25, r25
    1180:	61 f0       	breq	.+24     	; 0x119a <__fp_splitA+0x20>
    1182:	9f 3f       	cpi	r25, 0xFF	; 255
    1184:	79 f0       	breq	.+30     	; 0x11a4 <__fp_splitA+0x2a>
    1186:	87 95       	ror	r24
    1188:	08 95       	ret
    118a:	12 16       	cp	r1, r18
    118c:	13 06       	cpc	r1, r19
    118e:	14 06       	cpc	r1, r20
    1190:	55 1f       	adc	r21, r21
    1192:	f2 cf       	rjmp	.-28     	; 0x1178 <__fp_split3+0xe>
    1194:	46 95       	lsr	r20
    1196:	f1 df       	rcall	.-30     	; 0x117a <__fp_splitA>
    1198:	08 c0       	rjmp	.+16     	; 0x11aa <__fp_splitA+0x30>
    119a:	16 16       	cp	r1, r22
    119c:	17 06       	cpc	r1, r23
    119e:	18 06       	cpc	r1, r24
    11a0:	99 1f       	adc	r25, r25
    11a2:	f1 cf       	rjmp	.-30     	; 0x1186 <__fp_splitA+0xc>
    11a4:	86 95       	lsr	r24
    11a6:	71 05       	cpc	r23, r1
    11a8:	61 05       	cpc	r22, r1
    11aa:	08 94       	sec
    11ac:	08 95       	ret

000011ae <__fp_zero>:
    11ae:	e8 94       	clt

000011b0 <__fp_szero>:
    11b0:	bb 27       	eor	r27, r27
    11b2:	66 27       	eor	r22, r22
    11b4:	77 27       	eor	r23, r23
    11b6:	cb 01       	movw	r24, r22
    11b8:	97 f9       	bld	r25, 7
    11ba:	08 95       	ret

000011bc <__gesf2>:
    11bc:	0e 94 e3 08 	call	0x11c6	; 0x11c6 <__fp_cmp>
    11c0:	08 f4       	brcc	.+2      	; 0x11c4 <__gesf2+0x8>
    11c2:	8f ef       	ldi	r24, 0xFF	; 255
    11c4:	08 95       	ret

000011c6 <__fp_cmp>:
    11c6:	99 0f       	add	r25, r25
    11c8:	00 08       	sbc	r0, r0
    11ca:	55 0f       	add	r21, r21
    11cc:	aa 0b       	sbc	r26, r26
    11ce:	e0 e8       	ldi	r30, 0x80	; 128
    11d0:	fe ef       	ldi	r31, 0xFE	; 254
    11d2:	16 16       	cp	r1, r22
    11d4:	17 06       	cpc	r1, r23
    11d6:	e8 07       	cpc	r30, r24
    11d8:	f9 07       	cpc	r31, r25
    11da:	c0 f0       	brcs	.+48     	; 0x120c <__fp_cmp+0x46>
    11dc:	12 16       	cp	r1, r18
    11de:	13 06       	cpc	r1, r19
    11e0:	e4 07       	cpc	r30, r20
    11e2:	f5 07       	cpc	r31, r21
    11e4:	98 f0       	brcs	.+38     	; 0x120c <__fp_cmp+0x46>
    11e6:	62 1b       	sub	r22, r18
    11e8:	73 0b       	sbc	r23, r19
    11ea:	84 0b       	sbc	r24, r20
    11ec:	95 0b       	sbc	r25, r21
    11ee:	39 f4       	brne	.+14     	; 0x11fe <__fp_cmp+0x38>
    11f0:	0a 26       	eor	r0, r26
    11f2:	61 f0       	breq	.+24     	; 0x120c <__fp_cmp+0x46>
    11f4:	23 2b       	or	r18, r19
    11f6:	24 2b       	or	r18, r20
    11f8:	25 2b       	or	r18, r21
    11fa:	21 f4       	brne	.+8      	; 0x1204 <__fp_cmp+0x3e>
    11fc:	08 95       	ret
    11fe:	0a 26       	eor	r0, r26
    1200:	09 f4       	brne	.+2      	; 0x1204 <__fp_cmp+0x3e>
    1202:	a1 40       	sbci	r26, 0x01	; 1
    1204:	a6 95       	lsr	r26
    1206:	8f ef       	ldi	r24, 0xFF	; 255
    1208:	81 1d       	adc	r24, r1
    120a:	81 1d       	adc	r24, r1
    120c:	08 95       	ret

0000120e <do_rand>:
    120e:	8f 92       	push	r8
    1210:	9f 92       	push	r9
    1212:	af 92       	push	r10
    1214:	bf 92       	push	r11
    1216:	cf 92       	push	r12
    1218:	df 92       	push	r13
    121a:	ef 92       	push	r14
    121c:	ff 92       	push	r15
    121e:	cf 93       	push	r28
    1220:	df 93       	push	r29
    1222:	ec 01       	movw	r28, r24
    1224:	68 81       	ld	r22, Y
    1226:	79 81       	ldd	r23, Y+1	; 0x01
    1228:	8a 81       	ldd	r24, Y+2	; 0x02
    122a:	9b 81       	ldd	r25, Y+3	; 0x03
    122c:	61 15       	cp	r22, r1
    122e:	71 05       	cpc	r23, r1
    1230:	81 05       	cpc	r24, r1
    1232:	91 05       	cpc	r25, r1
    1234:	21 f4       	brne	.+8      	; 0x123e <do_rand+0x30>
    1236:	64 e2       	ldi	r22, 0x24	; 36
    1238:	79 ed       	ldi	r23, 0xD9	; 217
    123a:	8b e5       	ldi	r24, 0x5B	; 91
    123c:	97 e0       	ldi	r25, 0x07	; 7
    123e:	2d e1       	ldi	r18, 0x1D	; 29
    1240:	33 ef       	ldi	r19, 0xF3	; 243
    1242:	41 e0       	ldi	r20, 0x01	; 1
    1244:	50 e0       	ldi	r21, 0x00	; 0
    1246:	0e 94 a1 09 	call	0x1342	; 0x1342 <__divmodsi4>
    124a:	49 01       	movw	r8, r18
    124c:	5a 01       	movw	r10, r20
    124e:	9b 01       	movw	r18, r22
    1250:	ac 01       	movw	r20, r24
    1252:	a7 ea       	ldi	r26, 0xA7	; 167
    1254:	b1 e4       	ldi	r27, 0x41	; 65
    1256:	0e 94 c0 09 	call	0x1380	; 0x1380 <__muluhisi3>
    125a:	6b 01       	movw	r12, r22
    125c:	7c 01       	movw	r14, r24
    125e:	ac ee       	ldi	r26, 0xEC	; 236
    1260:	b4 ef       	ldi	r27, 0xF4	; 244
    1262:	a5 01       	movw	r20, r10
    1264:	94 01       	movw	r18, r8
    1266:	0e 94 ce 09 	call	0x139c	; 0x139c <__mulohisi3>
    126a:	dc 01       	movw	r26, r24
    126c:	cb 01       	movw	r24, r22
    126e:	8c 0d       	add	r24, r12
    1270:	9d 1d       	adc	r25, r13
    1272:	ae 1d       	adc	r26, r14
    1274:	bf 1d       	adc	r27, r15
    1276:	b7 ff       	sbrs	r27, 7
    1278:	03 c0       	rjmp	.+6      	; 0x1280 <do_rand+0x72>
    127a:	01 97       	sbiw	r24, 0x01	; 1
    127c:	a1 09       	sbc	r26, r1
    127e:	b0 48       	sbci	r27, 0x80	; 128
    1280:	88 83       	st	Y, r24
    1282:	99 83       	std	Y+1, r25	; 0x01
    1284:	aa 83       	std	Y+2, r26	; 0x02
    1286:	bb 83       	std	Y+3, r27	; 0x03
    1288:	9f 77       	andi	r25, 0x7F	; 127
    128a:	df 91       	pop	r29
    128c:	cf 91       	pop	r28
    128e:	ff 90       	pop	r15
    1290:	ef 90       	pop	r14
    1292:	df 90       	pop	r13
    1294:	cf 90       	pop	r12
    1296:	bf 90       	pop	r11
    1298:	af 90       	pop	r10
    129a:	9f 90       	pop	r9
    129c:	8f 90       	pop	r8
    129e:	08 95       	ret

000012a0 <rand_r>:
    12a0:	0e 94 07 09 	call	0x120e	; 0x120e <do_rand>
    12a4:	08 95       	ret

000012a6 <rand>:
    12a6:	80 e0       	ldi	r24, 0x00	; 0
    12a8:	91 e0       	ldi	r25, 0x01	; 1
    12aa:	0e 94 07 09 	call	0x120e	; 0x120e <do_rand>
    12ae:	08 95       	ret

000012b0 <srand>:
    12b0:	a0 e0       	ldi	r26, 0x00	; 0
    12b2:	b0 e0       	ldi	r27, 0x00	; 0
    12b4:	80 93 00 01 	sts	0x0100, r24	; 0x800100 <__data_start>
    12b8:	90 93 01 01 	sts	0x0101, r25	; 0x800101 <__data_start+0x1>
    12bc:	a0 93 02 01 	sts	0x0102, r26	; 0x800102 <__data_start+0x2>
    12c0:	b0 93 03 01 	sts	0x0103, r27	; 0x800103 <__data_start+0x3>
    12c4:	08 95       	ret

000012c6 <memcpy_P>:
    12c6:	fb 01       	movw	r30, r22
    12c8:	dc 01       	movw	r26, r24
    12ca:	02 c0       	rjmp	.+4      	; 0x12d0 <memcpy_P+0xa>
    12cc:	05 90       	lpm	r0, Z+
    12ce:	0d 92       	st	X+, r0
    12d0:	41 50       	subi	r20, 0x01	; 1
    12d2:	50 40       	sbci	r21, 0x00	; 0
    12d4:	d8 f7       	brcc	.-10     	; 0x12cc <memcpy_P+0x6>
    12d6:	08 95       	ret

000012d8 <__itoa_ncheck>:
    12d8:	bb 27       	eor	r27, r27
    12da:	4a 30       	cpi	r20, 0x0A	; 10
    12dc:	31 f4       	brne	.+12     	; 0x12ea <__itoa_ncheck+0x12>
    12de:	99 23       	and	r25, r25
    12e0:	22 f4       	brpl	.+8      	; 0x12ea <__itoa_ncheck+0x12>
    12e2:	bd e2       	ldi	r27, 0x2D	; 45
    12e4:	90 95       	com	r25
    12e6:	81 95       	neg	r24
    12e8:	9f 4f       	sbci	r25, 0xFF	; 255
    12ea:	0c 94 78 09 	jmp	0x12f0	; 0x12f0 <__utoa_common>

000012ee <__utoa_ncheck>:
    12ee:	bb 27       	eor	r27, r27

000012f0 <__utoa_common>:
    12f0:	fb 01       	movw	r30, r22
    12f2:	55 27       	eor	r21, r21
    12f4:	aa 27       	eor	r26, r26
    12f6:	88 0f       	add	r24, r24
    12f8:	99 1f       	adc	r25, r25
    12fa:	aa 1f       	adc	r26, r26
    12fc:	a4 17       	cp	r26, r20
    12fe:	10 f0       	brcs	.+4      	; 0x1304 <__utoa_common+0x14>
    1300:	a4 1b       	sub	r26, r20
    1302:	83 95       	inc	r24
    1304:	50 51       	subi	r21, 0x10	; 16
    1306:	b9 f7       	brne	.-18     	; 0x12f6 <__utoa_common+0x6>
    1308:	a0 5d       	subi	r26, 0xD0	; 208
    130a:	aa 33       	cpi	r26, 0x3A	; 58
    130c:	08 f0       	brcs	.+2      	; 0x1310 <__utoa_common+0x20>
    130e:	a9 5d       	subi	r26, 0xD9	; 217
    1310:	a1 93       	st	Z+, r26
    1312:	00 97       	sbiw	r24, 0x00	; 0
    1314:	79 f7       	brne	.-34     	; 0x12f4 <__utoa_common+0x4>
    1316:	b1 11       	cpse	r27, r1
    1318:	b1 93       	st	Z+, r27
    131a:	11 92       	st	Z+, r1
    131c:	cb 01       	movw	r24, r22
    131e:	0c 94 91 09 	jmp	0x1322	; 0x1322 <strrev>

00001322 <strrev>:
    1322:	dc 01       	movw	r26, r24
    1324:	fc 01       	movw	r30, r24
    1326:	67 2f       	mov	r22, r23
    1328:	71 91       	ld	r23, Z+
    132a:	77 23       	and	r23, r23
    132c:	e1 f7       	brne	.-8      	; 0x1326 <strrev+0x4>
    132e:	32 97       	sbiw	r30, 0x02	; 2
    1330:	04 c0       	rjmp	.+8      	; 0x133a <strrev+0x18>
    1332:	7c 91       	ld	r23, X
    1334:	6d 93       	st	X+, r22
    1336:	70 83       	st	Z, r23
    1338:	62 91       	ld	r22, -Z
    133a:	ae 17       	cp	r26, r30
    133c:	bf 07       	cpc	r27, r31
    133e:	c8 f3       	brcs	.-14     	; 0x1332 <strrev+0x10>
    1340:	08 95       	ret

00001342 <__divmodsi4>:
    1342:	05 2e       	mov	r0, r21
    1344:	97 fb       	bst	r25, 7
    1346:	1e f4       	brtc	.+6      	; 0x134e <__divmodsi4+0xc>
    1348:	00 94       	com	r0
    134a:	0e 94 b8 09 	call	0x1370	; 0x1370 <__negsi2>
    134e:	57 fd       	sbrc	r21, 7
    1350:	07 d0       	rcall	.+14     	; 0x1360 <__divmodsi4_neg2>
    1352:	0e 94 d3 09 	call	0x13a6	; 0x13a6 <__udivmodsi4>
    1356:	07 fc       	sbrc	r0, 7
    1358:	03 d0       	rcall	.+6      	; 0x1360 <__divmodsi4_neg2>
    135a:	4e f4       	brtc	.+18     	; 0x136e <__divmodsi4_exit>
    135c:	0c 94 b8 09 	jmp	0x1370	; 0x1370 <__negsi2>

00001360 <__divmodsi4_neg2>:
    1360:	50 95       	com	r21
    1362:	40 95       	com	r20
    1364:	30 95       	com	r19
    1366:	21 95       	neg	r18
    1368:	3f 4f       	sbci	r19, 0xFF	; 255
    136a:	4f 4f       	sbci	r20, 0xFF	; 255
    136c:	5f 4f       	sbci	r21, 0xFF	; 255

0000136e <__divmodsi4_exit>:
    136e:	08 95       	ret

00001370 <__negsi2>:
    1370:	90 95       	com	r25
    1372:	80 95       	com	r24
    1374:	70 95       	com	r23
    1376:	61 95       	neg	r22
    1378:	7f 4f       	sbci	r23, 0xFF	; 255
    137a:	8f 4f       	sbci	r24, 0xFF	; 255
    137c:	9f 4f       	sbci	r25, 0xFF	; 255
    137e:	08 95       	ret

00001380 <__muluhisi3>:
    1380:	0e 94 f5 09 	call	0x13ea	; 0x13ea <__umulhisi3>
    1384:	a5 9f       	mul	r26, r21
    1386:	90 0d       	add	r25, r0
    1388:	b4 9f       	mul	r27, r20
    138a:	90 0d       	add	r25, r0
    138c:	a4 9f       	mul	r26, r20
    138e:	80 0d       	add	r24, r0
    1390:	91 1d       	adc	r25, r1
    1392:	11 24       	eor	r1, r1
    1394:	08 95       	ret

00001396 <__mulshisi3>:
    1396:	b7 ff       	sbrs	r27, 7
    1398:	0c 94 c0 09 	jmp	0x1380	; 0x1380 <__muluhisi3>

0000139c <__mulohisi3>:
    139c:	0e 94 c0 09 	call	0x1380	; 0x1380 <__muluhisi3>
    13a0:	82 1b       	sub	r24, r18
    13a2:	93 0b       	sbc	r25, r19
    13a4:	08 95       	ret

000013a6 <__udivmodsi4>:
    13a6:	a1 e2       	ldi	r26, 0x21	; 33
    13a8:	1a 2e       	mov	r1, r26
    13aa:	aa 1b       	sub	r26, r26
    13ac:	bb 1b       	sub	r27, r27
    13ae:	fd 01       	movw	r30, r26
    13b0:	0d c0       	rjmp	.+26     	; 0x13cc <__udivmodsi4_ep>

000013b2 <__udivmodsi4_loop>:
    13b2:	aa 1f       	adc	r26, r26
    13b4:	bb 1f       	adc	r27, r27
    13b6:	ee 1f       	adc	r30, r30
    13b8:	ff 1f       	adc	r31, r31
    13ba:	a2 17       	cp	r26, r18
    13bc:	b3 07       	cpc	r27, r19
    13be:	e4 07       	cpc	r30, r20
    13c0:	f5 07       	cpc	r31, r21
    13c2:	20 f0       	brcs	.+8      	; 0x13cc <__udivmodsi4_ep>
    13c4:	a2 1b       	sub	r26, r18
    13c6:	b3 0b       	sbc	r27, r19
    13c8:	e4 0b       	sbc	r30, r20
    13ca:	f5 0b       	sbc	r31, r21

000013cc <__udivmodsi4_ep>:
    13cc:	66 1f       	adc	r22, r22
    13ce:	77 1f       	adc	r23, r23
    13d0:	88 1f       	adc	r24, r24
    13d2:	99 1f       	adc	r25, r25
    13d4:	1a 94       	dec	r1
    13d6:	69 f7       	brne	.-38     	; 0x13b2 <__udivmodsi4_loop>
    13d8:	60 95       	com	r22
    13da:	70 95       	com	r23
    13dc:	80 95       	com	r24
    13de:	90 95       	com	r25
    13e0:	9b 01       	movw	r18, r22
    13e2:	ac 01       	movw	r20, r24
    13e4:	bd 01       	movw	r22, r26
    13e6:	cf 01       	movw	r24, r30
    13e8:	08 95       	ret

000013ea <__umulhisi3>:
    13ea:	a2 9f       	mul	r26, r18
    13ec:	b0 01       	movw	r22, r0
    13ee:	b3 9f       	mul	r27, r19
    13f0:	c0 01       	movw	r24, r0
    13f2:	a3 9f       	mul	r26, r19
    13f4:	70 0d       	add	r23, r0
    13f6:	81 1d       	adc	r24, r1
    13f8:	11 24       	eor	r1, r1
    13fa:	91 1d       	adc	r25, r1
    13fc:	b2 9f       	mul	r27, r18
    13fe:	70 0d       	add	r23, r0
    1400:	81 1d       	adc	r24, r1
    1402:	11 24       	eor	r1, r1
    1404:	91 1d       	adc	r25, r1
    1406:	08 95       	ret

00001408 <_exit>:
    1408:	f8 94       	cli

0000140a <__stop_program>:
    140a:	ff cf       	rjmp	.-2      	; 0x140a <__stop_program>
