
code.elf:     file format elf32-avr


Disassembly of section .text:

00000000 <__vectors>:
   0:	0c 94 24 01 	jmp	0x248	; 0x248 <__ctors_end>
   4:	0c 94 41 01 	jmp	0x282	; 0x282 <__bad_interrupt>
   8:	0c 94 41 01 	jmp	0x282	; 0x282 <__bad_interrupt>
   c:	0c 94 41 01 	jmp	0x282	; 0x282 <__bad_interrupt>
  10:	0c 94 41 01 	jmp	0x282	; 0x282 <__bad_interrupt>
  14:	0c 94 8c 01 	jmp	0x318	; 0x318 <__vector_5>
  18:	0c 94 41 01 	jmp	0x282	; 0x282 <__bad_interrupt>
  1c:	0c 94 41 01 	jmp	0x282	; 0x282 <__bad_interrupt>
  20:	0c 94 41 01 	jmp	0x282	; 0x282 <__bad_interrupt>
  24:	0c 94 41 01 	jmp	0x282	; 0x282 <__bad_interrupt>
  28:	0c 94 41 01 	jmp	0x282	; 0x282 <__bad_interrupt>
  2c:	0c 94 43 01 	jmp	0x286	; 0x286 <__vector_11>
  30:	0c 94 41 01 	jmp	0x282	; 0x282 <__bad_interrupt>
  34:	0c 94 41 01 	jmp	0x282	; 0x282 <__bad_interrupt>
  38:	0c 94 41 01 	jmp	0x282	; 0x282 <__bad_interrupt>
  3c:	0c 94 41 01 	jmp	0x282	; 0x282 <__bad_interrupt>
  40:	0c 94 41 01 	jmp	0x282	; 0x282 <__bad_interrupt>
  44:	0c 94 41 01 	jmp	0x282	; 0x282 <__bad_interrupt>
  48:	0c 94 41 01 	jmp	0x282	; 0x282 <__bad_interrupt>
  4c:	0c 94 41 01 	jmp	0x282	; 0x282 <__bad_interrupt>
  50:	0c 94 41 01 	jmp	0x282	; 0x282 <__bad_interrupt>
  54:	0c 94 41 01 	jmp	0x282	; 0x282 <__bad_interrupt>
  58:	0c 94 41 01 	jmp	0x282	; 0x282 <__bad_interrupt>
  5c:	0c 94 41 01 	jmp	0x282	; 0x282 <__bad_interrupt>
  60:	0c 94 41 01 	jmp	0x282	; 0x282 <__bad_interrupt>
  64:	0c 94 41 01 	jmp	0x282	; 0x282 <__bad_interrupt>

00000068 <CHARSET>:
  68:	00 00 00 00 00 00 00 5f 00 00 00 07 00 07 00 14     ......._........
  78:	7f 14 7f 14 24 2a 7f 2a 12 23 13 08 64 62 36 49     ....$*.*.#..db6I
  88:	55 22 50 00 05 03 00 00 00 1c 22 41 00 00 41 22     U"P......."A..A"
  98:	1c 00 14 08 3e 08 14 08 08 3e 08 08 00 50 30 00     ....>....>...P0.
  a8:	00 08 08 08 08 08 00 60 60 00 00 20 10 08 04 02     .......``.. ....
  b8:	3e 51 49 45 3e 00 42 7f 40 00 42 61 51 49 46 21     >QIE>.B.@.BaQIF!
  c8:	41 45 4b 31 18 14 12 7f 10 27 45 45 45 39 3c 4a     AEK1.....'EEE9<J
  d8:	49 49 30 01 71 09 05 03 36 49 49 49 36 06 49 49     II0.q...6III6.II
  e8:	29 1e 00 36 36 00 00 00 56 36 00 00 08 14 22 41     )..66...V6...."A
  f8:	00 14 14 14 14 14 00 41 22 14 08 02 01 51 09 06     .......A"....Q..
 108:	32 49 79 41 3e 7e 11 11 11 7e 7f 49 49 49 36 3e     2IyA>~...~.III6>
 118:	41 41 41 22 7f 41 41 22 1c 7f 49 49 49 41 7f 09     AAA".AA"..IIIA..
 128:	09 09 01 3e 41 49 49 7a 7f 08 08 08 7f 00 41 7f     ...>AIIz......A.
 138:	41 00 20 40 41 3f 01 7f 08 14 22 41 7f 40 40 40     A. @A?...."A.@@@
 148:	40 7f 02 0c 02 7f 7f 04 08 10 7f 3e 41 41 41 3e     @..........>AAA>
 158:	7f 09 09 09 06 3e 41 51 21 5e 7f 09 19 29 46 46     .....>AQ!^...)FF
 168:	49 49 49 31 01 01 7f 01 01 3f 40 40 40 3f 1f 20     III1.....?@@@?. 
 178:	40 20 1f 3f 40 38 40 3f 63 14 08 14 63 07 08 70     @ .?@8@?c...c..p
 188:	08 07 61 51 49 45 43 00 7f 41 41 00 02 04 08 10     ..aQIEC..AA.....
 198:	20 00 41 41 7f 00 04 02 01 02 04 40 40 40 40 40      .AA.......@@@@@
 1a8:	00 01 02 04 00 20 54 54 54 78 7f 48 44 44 38 38     ..... TTTx.HDD88
 1b8:	44 44 44 20 38 44 44 48 7f 38 54 54 54 18 08 7e     DDD 8DDH.8TTT..~
 1c8:	09 01 02 0c 52 52 52 3e 7f 08 04 04 78 00 44 7d     ....RRR>....x.D}
 1d8:	40 00 20 40 44 3d 00 7f 10 28 44 00 00 41 7f 40     @. @D=...(D..A.@
 1e8:	00 7c 04 18 04 78 7c 08 04 04 78 38 44 44 44 38     .|...x|...x8DDD8
 1f8:	7c 14 14 14 08 08 14 14 18 7c 7c 08 04 04 08 48     |........||....H
 208:	54 54 54 20 04 3f 44 40 20 3c 40 40 20 7c 1c 20     TTT .?D@ <@@ |. 
 218:	40 20 1c 3c 40 30 40 3c 44 28 10 28 44 0c 50 50     @ .<@0@<D(.(D.PP
 228:	50 3c 44 64 54 4c 44 00 08 36 41 00 00 00 7f 00     P<DdTLD..6A.....
 238:	00 00 41 36 08 00 10 08 08 10 08 00 00 00 00 00     ..A6............

00000248 <__ctors_end>:
 248:	11 24       	eor	r1, r1
 24a:	1f be       	out	0x3f, r1	; 63
 24c:	cf ef       	ldi	r28, 0xFF	; 255
 24e:	d8 e0       	ldi	r29, 0x08	; 8
 250:	de bf       	out	0x3e, r29	; 62
 252:	cd bf       	out	0x3d, r28	; 61

00000254 <__do_copy_data>:
 254:	11 e0       	ldi	r17, 0x01	; 1
 256:	a0 e0       	ldi	r26, 0x00	; 0
 258:	b1 e0       	ldi	r27, 0x01	; 1
 25a:	e0 e4       	ldi	r30, 0x40	; 64
 25c:	fe e0       	ldi	r31, 0x0E	; 14
 25e:	02 c0       	rjmp	.+4      	; 0x264 <__do_copy_data+0x10>
 260:	05 90       	lpm	r0, Z+
 262:	0d 92       	st	X+, r0
 264:	aa 32       	cpi	r26, 0x2A	; 42
 266:	b1 07       	cpc	r27, r17
 268:	d9 f7       	brne	.-10     	; 0x260 <__do_copy_data+0xc>

0000026a <__do_clear_bss>:
 26a:	23 e0       	ldi	r18, 0x03	; 3
 26c:	aa e2       	ldi	r26, 0x2A	; 42
 26e:	b1 e0       	ldi	r27, 0x01	; 1
 270:	01 c0       	rjmp	.+2      	; 0x274 <.do_clear_bss_start>

00000272 <.do_clear_bss_loop>:
 272:	1d 92       	st	X+, r1

00000274 <.do_clear_bss_start>:
 274:	ae 37       	cpi	r26, 0x7E	; 126
 276:	b2 07       	cpc	r27, r18
 278:	e1 f7       	brne	.-8      	; 0x272 <.do_clear_bss_loop>
 27a:	0e 94 08 05 	call	0xa10	; 0xa10 <main>
 27e:	0c 94 1e 07 	jmp	0xe3c	; 0xe3c <_exit>

00000282 <__bad_interrupt>:
 282:	0c 94 00 00 	jmp	0	; 0x0 <__vectors>

00000286 <__vector_11>:
 286:	1f 92       	push	r1
 288:	0f 92       	push	r0
 28a:	0f b6       	in	r0, 0x3f	; 63
 28c:	0f 92       	push	r0
 28e:	11 24       	eor	r1, r1
 290:	2f 93       	push	r18
 292:	3f 93       	push	r19
 294:	4f 93       	push	r20
 296:	5f 93       	push	r21
 298:	6f 93       	push	r22
 29a:	7f 93       	push	r23
 29c:	8f 93       	push	r24
 29e:	9f 93       	push	r25
 2a0:	af 93       	push	r26
 2a2:	bf 93       	push	r27
 2a4:	ef 93       	push	r30
 2a6:	ff 93       	push	r31
 2a8:	cf 93       	push	r28
 2aa:	df 93       	push	r29
 2ac:	00 d0       	rcall	.+0      	; 0x2ae <__vector_11+0x28>
 2ae:	cd b7       	in	r28, 0x3d	; 61
 2b0:	de b7       	in	r29, 0x3e	; 62
 2b2:	60 e0       	ldi	r22, 0x00	; 0
 2b4:	80 e0       	ldi	r24, 0x00	; 0
 2b6:	0e 94 95 03 	call	0x72a	; 0x72a <nokia_lcd_set_cursor>
 2ba:	80 91 02 01 	lds	r24, 0x0102	; 0x800102 <__data_start+0x2>
 2be:	90 91 03 01 	lds	r25, 0x0103	; 0x800103 <__data_start+0x3>
 2c2:	9a 83       	std	Y+2, r25	; 0x02
 2c4:	89 83       	std	Y+1, r24	; 0x01
 2c6:	80 91 00 01 	lds	r24, 0x0100	; 0x800100 <__data_start>
 2ca:	80 5d       	subi	r24, 0xD0	; 208
 2cc:	89 83       	std	Y+1, r24	; 0x01
 2ce:	61 e0       	ldi	r22, 0x01	; 1
 2d0:	ce 01       	movw	r24, r28
 2d2:	01 96       	adiw	r24, 0x01	; 1
 2d4:	0e 94 85 03 	call	0x70a	; 0x70a <nokia_lcd_write_string>
 2d8:	0e 94 9a 03 	call	0x734	; 0x734 <nokia_lcd_render>
 2dc:	80 91 00 01 	lds	r24, 0x0100	; 0x800100 <__data_start>
 2e0:	90 91 01 01 	lds	r25, 0x0101	; 0x800101 <__data_start+0x1>
 2e4:	01 97       	sbiw	r24, 0x01	; 1
 2e6:	90 93 01 01 	sts	0x0101, r25	; 0x800101 <__data_start+0x1>
 2ea:	80 93 00 01 	sts	0x0100, r24	; 0x800100 <__data_start>
 2ee:	0f 90       	pop	r0
 2f0:	0f 90       	pop	r0
 2f2:	df 91       	pop	r29
 2f4:	cf 91       	pop	r28
 2f6:	ff 91       	pop	r31
 2f8:	ef 91       	pop	r30
 2fa:	bf 91       	pop	r27
 2fc:	af 91       	pop	r26
 2fe:	9f 91       	pop	r25
 300:	8f 91       	pop	r24
 302:	7f 91       	pop	r23
 304:	6f 91       	pop	r22
 306:	5f 91       	pop	r21
 308:	4f 91       	pop	r20
 30a:	3f 91       	pop	r19
 30c:	2f 91       	pop	r18
 30e:	0f 90       	pop	r0
 310:	0f be       	out	0x3f, r0	; 63
 312:	0f 90       	pop	r0
 314:	1f 90       	pop	r1
 316:	18 95       	reti

00000318 <__vector_5>:
 318:	1f 92       	push	r1
 31a:	0f 92       	push	r0
 31c:	0f b6       	in	r0, 0x3f	; 63
 31e:	0f 92       	push	r0
 320:	11 24       	eor	r1, r1
 322:	2f 93       	push	r18
 324:	3f 93       	push	r19
 326:	4f 93       	push	r20
 328:	5f 93       	push	r21
 32a:	6f 93       	push	r22
 32c:	7f 93       	push	r23
 32e:	8f 93       	push	r24
 330:	9f 93       	push	r25
 332:	af 93       	push	r26
 334:	bf 93       	push	r27
 336:	ef 93       	push	r30
 338:	ff 93       	push	r31
 33a:	48 9b       	sbis	0x09, 0	; 9
 33c:	03 c0       	rjmp	.+6      	; 0x344 <__vector_5+0x2c>
 33e:	49 99       	sbic	0x09, 1	; 9
 340:	0f c0       	rjmp	.+30     	; 0x360 <__vector_5+0x48>
 342:	11 c0       	rjmp	.+34     	; 0x366 <__vector_5+0x4e>
 344:	61 e0       	ldi	r22, 0x01	; 1
 346:	84 e0       	ldi	r24, 0x04	; 4
 348:	91 e0       	ldi	r25, 0x01	; 1
 34a:	0e 94 85 03 	call	0x70a	; 0x70a <nokia_lcd_write_string>
 34e:	48 99       	sbic	0x09, 0	; 9
 350:	f6 cf       	rjmp	.-20     	; 0x33e <__vector_5+0x26>
 352:	8f e9       	ldi	r24, 0x9F	; 159
 354:	9f e0       	ldi	r25, 0x0F	; 15
 356:	01 97       	sbiw	r24, 0x01	; 1
 358:	f1 f7       	brne	.-4      	; 0x356 <__vector_5+0x3e>
 35a:	00 c0       	rjmp	.+0      	; 0x35c <__vector_5+0x44>
 35c:	00 00       	nop
 35e:	f7 cf       	rjmp	.-18     	; 0x34e <__vector_5+0x36>
 360:	4a 99       	sbic	0x09, 2	; 9
 362:	0f c0       	rjmp	.+30     	; 0x382 <__vector_5+0x6a>
 364:	25 c0       	rjmp	.+74     	; 0x3b0 <__vector_5+0x98>
 366:	61 e0       	ldi	r22, 0x01	; 1
 368:	8d e0       	ldi	r24, 0x0D	; 13
 36a:	91 e0       	ldi	r25, 0x01	; 1
 36c:	0e 94 85 03 	call	0x70a	; 0x70a <nokia_lcd_write_string>
 370:	49 99       	sbic	0x09, 1	; 9
 372:	f6 cf       	rjmp	.-20     	; 0x360 <__vector_5+0x48>
 374:	8f e9       	ldi	r24, 0x9F	; 159
 376:	9f e0       	ldi	r25, 0x0F	; 15
 378:	01 97       	sbiw	r24, 0x01	; 1
 37a:	f1 f7       	brne	.-4      	; 0x378 <__vector_5+0x60>
 37c:	00 c0       	rjmp	.+0      	; 0x37e <__vector_5+0x66>
 37e:	00 00       	nop
 380:	f7 cf       	rjmp	.-18     	; 0x370 <__vector_5+0x58>
 382:	8f e9       	ldi	r24, 0x9F	; 159
 384:	9f e0       	ldi	r25, 0x0F	; 15
 386:	01 97       	sbiw	r24, 0x01	; 1
 388:	f1 f7       	brne	.-4      	; 0x386 <__vector_5+0x6e>
 38a:	00 c0       	rjmp	.+0      	; 0x38c <__vector_5+0x74>
 38c:	00 00       	nop
 38e:	ff 91       	pop	r31
 390:	ef 91       	pop	r30
 392:	bf 91       	pop	r27
 394:	af 91       	pop	r26
 396:	9f 91       	pop	r25
 398:	8f 91       	pop	r24
 39a:	7f 91       	pop	r23
 39c:	6f 91       	pop	r22
 39e:	5f 91       	pop	r21
 3a0:	4f 91       	pop	r20
 3a2:	3f 91       	pop	r19
 3a4:	2f 91       	pop	r18
 3a6:	0f 90       	pop	r0
 3a8:	0f be       	out	0x3f, r0	; 63
 3aa:	0f 90       	pop	r0
 3ac:	1f 90       	pop	r1
 3ae:	18 95       	reti
 3b0:	61 e0       	ldi	r22, 0x01	; 1
 3b2:	86 e1       	ldi	r24, 0x16	; 22
 3b4:	91 e0       	ldi	r25, 0x01	; 1
 3b6:	0e 94 85 03 	call	0x70a	; 0x70a <nokia_lcd_write_string>
 3ba:	48 99       	sbic	0x09, 0	; 9
 3bc:	e2 cf       	rjmp	.-60     	; 0x382 <__vector_5+0x6a>
 3be:	8f e9       	ldi	r24, 0x9F	; 159
 3c0:	9f e0       	ldi	r25, 0x0F	; 15
 3c2:	01 97       	sbiw	r24, 0x01	; 1
 3c4:	f1 f7       	brne	.-4      	; 0x3c2 <__vector_5+0xaa>
 3c6:	00 c0       	rjmp	.+0      	; 0x3c8 <__vector_5+0xb0>
 3c8:	00 00       	nop
 3ca:	f7 cf       	rjmp	.-18     	; 0x3ba <__vector_5+0xa2>

000003cc <start>:
 3cc:	08 95       	ret

000003ce <sortSecret>:
 3ce:	08 95       	ret

000003d0 <nextDigit>:
 3d0:	80 91 2a 01 	lds	r24, 0x012A	; 0x80012a <__data_end>
 3d4:	90 91 2b 01 	lds	r25, 0x012B	; 0x80012b <__data_end+0x1>
 3d8:	01 96       	adiw	r24, 0x01	; 1
 3da:	84 30       	cpi	r24, 0x04	; 4
 3dc:	91 05       	cpc	r25, r1
 3de:	2c f4       	brge	.+10     	; 0x3ea <nextDigit+0x1a>
 3e0:	90 93 2b 01 	sts	0x012B, r25	; 0x80012b <__data_end+0x1>
 3e4:	80 93 2a 01 	sts	0x012A, r24	; 0x80012a <__data_end>
 3e8:	08 95       	ret
 3ea:	10 92 2b 01 	sts	0x012B, r1	; 0x80012b <__data_end+0x1>
 3ee:	10 92 2a 01 	sts	0x012A, r1	; 0x80012a <__data_end>
 3f2:	08 95       	ret

000003f4 <nextValue>:
 3f4:	e0 91 2a 01 	lds	r30, 0x012A	; 0x80012a <__data_end>
 3f8:	f0 91 2b 01 	lds	r31, 0x012B	; 0x80012b <__data_end+0x1>
 3fc:	ee 0f       	add	r30, r30
 3fe:	ff 1f       	adc	r31, r31
 400:	e2 5d       	subi	r30, 0xD2	; 210
 402:	fc 4f       	sbci	r31, 0xFC	; 252
 404:	80 81       	ld	r24, Z
 406:	91 81       	ldd	r25, Z+1	; 0x01
 408:	01 96       	adiw	r24, 0x01	; 1
 40a:	8a 30       	cpi	r24, 0x0A	; 10
 40c:	91 05       	cpc	r25, r1
 40e:	1c f4       	brge	.+6      	; 0x416 <__LOCK_REGION_LENGTH__+0x16>
 410:	91 83       	std	Z+1, r25	; 0x01
 412:	80 83       	st	Z, r24
 414:	08 95       	ret
 416:	11 82       	std	Z+1, r1	; 0x01
 418:	10 82       	st	Z, r1
 41a:	08 95       	ret

0000041c <prevValue>:
 41c:	e0 91 2a 01 	lds	r30, 0x012A	; 0x80012a <__data_end>
 420:	f0 91 2b 01 	lds	r31, 0x012B	; 0x80012b <__data_end+0x1>
 424:	ee 0f       	add	r30, r30
 426:	ff 1f       	adc	r31, r31
 428:	e2 5d       	subi	r30, 0xD2	; 210
 42a:	fc 4f       	sbci	r31, 0xFC	; 252
 42c:	80 81       	ld	r24, Z
 42e:	91 81       	ldd	r25, Z+1	; 0x01
 430:	01 97       	sbiw	r24, 0x01	; 1
 432:	97 ff       	sbrs	r25, 7
 434:	02 c0       	rjmp	.+4      	; 0x43a <prevValue+0x1e>
 436:	89 e0       	ldi	r24, 0x09	; 9
 438:	90 e0       	ldi	r25, 0x00	; 0
 43a:	91 83       	std	Z+1, r25	; 0x01
 43c:	80 83       	st	Z, r24
 43e:	08 95       	ret

00000440 <verifyCode>:
 440:	cf 93       	push	r28
 442:	df 93       	push	r29
 444:	ae e2       	ldi	r26, 0x2E	; 46
 446:	b3 e0       	ldi	r27, 0x03	; 3
 448:	c6 e3       	ldi	r28, 0x36	; 54
 44a:	d3 e0       	ldi	r29, 0x03	; 3
 44c:	e6 e2       	ldi	r30, 0x26	; 38
 44e:	f3 e0       	ldi	r31, 0x03	; 3
 450:	81 e0       	ldi	r24, 0x01	; 1
 452:	90 e0       	ldi	r25, 0x00	; 0
 454:	4d 91       	ld	r20, X+
 456:	5d 91       	ld	r21, X+
 458:	29 91       	ld	r18, Y+
 45a:	39 91       	ld	r19, Y+
 45c:	42 17       	cp	r20, r18
 45e:	53 07       	cpc	r21, r19
 460:	19 f4       	brne	.+6      	; 0x468 <verifyCode+0x28>
 462:	91 83       	std	Z+1, r25	; 0x01
 464:	80 83       	st	Z, r24
 466:	02 c0       	rjmp	.+4      	; 0x46c <verifyCode+0x2c>
 468:	11 82       	std	Z+1, r1	; 0x01
 46a:	10 82       	st	Z, r1
 46c:	32 96       	adiw	r30, 0x02	; 2
 46e:	23 e0       	ldi	r18, 0x03	; 3
 470:	a6 33       	cpi	r26, 0x36	; 54
 472:	b2 07       	cpc	r27, r18
 474:	79 f7       	brne	.-34     	; 0x454 <verifyCode+0x14>
 476:	df 91       	pop	r29
 478:	cf 91       	pop	r28
 47a:	08 95       	ret

0000047c <write>:
 47c:	29 98       	cbi	0x05, 1	; 5
 47e:	66 23       	and	r22, r22
 480:	11 f0       	breq	.+4      	; 0x486 <write+0xa>
 482:	2b 9a       	sbi	0x05, 3	; 5
 484:	01 c0       	rjmp	.+2      	; 0x488 <write+0xc>
 486:	2b 98       	cbi	0x05, 3	; 5
 488:	27 e0       	ldi	r18, 0x07	; 7
 48a:	30 e0       	ldi	r19, 0x00	; 0
 48c:	90 e0       	ldi	r25, 0x00	; 0
 48e:	ac 01       	movw	r20, r24
 490:	02 2e       	mov	r0, r18
 492:	02 c0       	rjmp	.+4      	; 0x498 <write+0x1c>
 494:	55 95       	asr	r21
 496:	47 95       	ror	r20
 498:	0a 94       	dec	r0
 49a:	e2 f7       	brpl	.-8      	; 0x494 <write+0x18>
 49c:	40 ff       	sbrs	r20, 0
 49e:	02 c0       	rjmp	.+4      	; 0x4a4 <write+0x28>
 4a0:	2c 9a       	sbi	0x05, 4	; 5
 4a2:	01 c0       	rjmp	.+2      	; 0x4a6 <write+0x2a>
 4a4:	2c 98       	cbi	0x05, 4	; 5
 4a6:	2d 9a       	sbi	0x05, 5	; 5
 4a8:	2d 98       	cbi	0x05, 5	; 5
 4aa:	21 50       	subi	r18, 0x01	; 1
 4ac:	31 09       	sbc	r19, r1
 4ae:	78 f7       	brcc	.-34     	; 0x48e <write+0x12>
 4b0:	29 9a       	sbi	0x05, 1	; 5
 4b2:	08 95       	ret

000004b4 <write_cmd>:
 4b4:	60 e0       	ldi	r22, 0x00	; 0
 4b6:	0c 94 3e 02 	jmp	0x47c	; 0x47c <write>

000004ba <nokia_lcd_init>:
 4ba:	cf 93       	push	r28
 4bc:	df 93       	push	r29
 4be:	21 9a       	sbi	0x04, 1	; 4
 4c0:	22 9a       	sbi	0x04, 2	; 4
 4c2:	23 9a       	sbi	0x04, 3	; 4
 4c4:	24 9a       	sbi	0x04, 4	; 4
 4c6:	25 9a       	sbi	0x04, 5	; 4
 4c8:	2a 9a       	sbi	0x05, 2	; 5
 4ca:	29 9a       	sbi	0x05, 1	; 5
 4cc:	8f e3       	ldi	r24, 0x3F	; 63
 4ce:	9c e9       	ldi	r25, 0x9C	; 156
 4d0:	01 97       	sbiw	r24, 0x01	; 1
 4d2:	f1 f7       	brne	.-4      	; 0x4d0 <nokia_lcd_init+0x16>
 4d4:	00 c0       	rjmp	.+0      	; 0x4d6 <nokia_lcd_init+0x1c>
 4d6:	00 00       	nop
 4d8:	2a 98       	cbi	0x05, 2	; 5
 4da:	9f ef       	ldi	r25, 0xFF	; 255
 4dc:	2a e6       	ldi	r18, 0x6A	; 106
 4de:	83 e0       	ldi	r24, 0x03	; 3
 4e0:	91 50       	subi	r25, 0x01	; 1
 4e2:	20 40       	sbci	r18, 0x00	; 0
 4e4:	80 40       	sbci	r24, 0x00	; 0
 4e6:	e1 f7       	brne	.-8      	; 0x4e0 <nokia_lcd_init+0x26>
 4e8:	00 c0       	rjmp	.+0      	; 0x4ea <nokia_lcd_init+0x30>
 4ea:	00 00       	nop
 4ec:	2a 9a       	sbi	0x05, 2	; 5
 4ee:	29 98       	cbi	0x05, 1	; 5
 4f0:	81 e2       	ldi	r24, 0x21	; 33
 4f2:	0e 94 5a 02 	call	0x4b4	; 0x4b4 <write_cmd>
 4f6:	83 e1       	ldi	r24, 0x13	; 19
 4f8:	0e 94 5a 02 	call	0x4b4	; 0x4b4 <write_cmd>
 4fc:	86 e0       	ldi	r24, 0x06	; 6
 4fe:	0e 94 5a 02 	call	0x4b4	; 0x4b4 <write_cmd>
 502:	82 ec       	ldi	r24, 0xC2	; 194
 504:	0e 94 5a 02 	call	0x4b4	; 0x4b4 <write_cmd>
 508:	80 e2       	ldi	r24, 0x20	; 32
 50a:	0e 94 5a 02 	call	0x4b4	; 0x4b4 <write_cmd>
 50e:	89 e0       	ldi	r24, 0x09	; 9
 510:	0e 94 5a 02 	call	0x4b4	; 0x4b4 <write_cmd>
 514:	80 e8       	ldi	r24, 0x80	; 128
 516:	0e 94 5a 02 	call	0x4b4	; 0x4b4 <write_cmd>
 51a:	80 e4       	ldi	r24, 0x40	; 64
 51c:	0e 94 5a 02 	call	0x4b4	; 0x4b4 <write_cmd>
 520:	c8 ef       	ldi	r28, 0xF8	; 248
 522:	d1 e0       	ldi	r29, 0x01	; 1
 524:	61 e0       	ldi	r22, 0x01	; 1
 526:	80 e0       	ldi	r24, 0x00	; 0
 528:	0e 94 3e 02 	call	0x47c	; 0x47c <write>
 52c:	21 97       	sbiw	r28, 0x01	; 1
 52e:	d1 f7       	brne	.-12     	; 0x524 <nokia_lcd_init+0x6a>
 530:	88 e0       	ldi	r24, 0x08	; 8
 532:	0e 94 5a 02 	call	0x4b4	; 0x4b4 <write_cmd>
 536:	8c e0       	ldi	r24, 0x0C	; 12
 538:	df 91       	pop	r29
 53a:	cf 91       	pop	r28
 53c:	0c 94 5a 02 	jmp	0x4b4	; 0x4b4 <write_cmd>

00000540 <nokia_lcd_clear>:
 540:	80 e8       	ldi	r24, 0x80	; 128
 542:	0e 94 5a 02 	call	0x4b4	; 0x4b4 <write_cmd>
 546:	80 e4       	ldi	r24, 0x40	; 64
 548:	0e 94 5a 02 	call	0x4b4	; 0x4b4 <write_cmd>
 54c:	10 92 24 03 	sts	0x0324, r1	; 0x800324 <nokia_lcd+0x1f8>
 550:	10 92 25 03 	sts	0x0325, r1	; 0x800325 <nokia_lcd+0x1f9>
 554:	88 ef       	ldi	r24, 0xF8	; 248
 556:	91 e0       	ldi	r25, 0x01	; 1
 558:	ec e2       	ldi	r30, 0x2C	; 44
 55a:	f1 e0       	ldi	r31, 0x01	; 1
 55c:	df 01       	movw	r26, r30
 55e:	9c 01       	movw	r18, r24
 560:	1d 92       	st	X+, r1
 562:	21 50       	subi	r18, 0x01	; 1
 564:	30 40       	sbci	r19, 0x00	; 0
 566:	e1 f7       	brne	.-8      	; 0x560 <nokia_lcd_clear+0x20>
 568:	08 95       	ret

0000056a <nokia_lcd_power>:
 56a:	81 11       	cpse	r24, r1
 56c:	02 c0       	rjmp	.+4      	; 0x572 <nokia_lcd_power+0x8>
 56e:	84 e2       	ldi	r24, 0x24	; 36
 570:	01 c0       	rjmp	.+2      	; 0x574 <nokia_lcd_power+0xa>
 572:	80 e2       	ldi	r24, 0x20	; 32
 574:	0c 94 5a 02 	jmp	0x4b4	; 0x4b4 <write_cmd>

00000578 <nokia_lcd_set_pixel>:
 578:	96 2f       	mov	r25, r22
 57a:	96 95       	lsr	r25
 57c:	96 95       	lsr	r25
 57e:	96 95       	lsr	r25
 580:	e8 2f       	mov	r30, r24
 582:	f0 e0       	ldi	r31, 0x00	; 0
 584:	84 e5       	ldi	r24, 0x54	; 84
 586:	98 9f       	mul	r25, r24
 588:	e0 0d       	add	r30, r0
 58a:	f1 1d       	adc	r31, r1
 58c:	11 24       	eor	r1, r1
 58e:	e4 5d       	subi	r30, 0xD4	; 212
 590:	fe 4f       	sbci	r31, 0xFE	; 254
 592:	67 70       	andi	r22, 0x07	; 7
 594:	81 e0       	ldi	r24, 0x01	; 1
 596:	90 e0       	ldi	r25, 0x00	; 0
 598:	01 c0       	rjmp	.+2      	; 0x59c <nokia_lcd_set_pixel+0x24>
 59a:	88 0f       	add	r24, r24
 59c:	6a 95       	dec	r22
 59e:	ea f7       	brpl	.-6      	; 0x59a <nokia_lcd_set_pixel+0x22>
 5a0:	44 23       	and	r20, r20
 5a2:	19 f0       	breq	.+6      	; 0x5aa <nokia_lcd_set_pixel+0x32>
 5a4:	90 81       	ld	r25, Z
 5a6:	89 2b       	or	r24, r25
 5a8:	03 c0       	rjmp	.+6      	; 0x5b0 <nokia_lcd_set_pixel+0x38>
 5aa:	80 95       	com	r24
 5ac:	90 81       	ld	r25, Z
 5ae:	89 23       	and	r24, r25
 5b0:	80 83       	st	Z, r24
 5b2:	08 95       	ret

000005b4 <nokia_lcd_write_char>:
 5b4:	8f 92       	push	r8
 5b6:	9f 92       	push	r9
 5b8:	af 92       	push	r10
 5ba:	bf 92       	push	r11
 5bc:	df 92       	push	r13
 5be:	ef 92       	push	r14
 5c0:	ff 92       	push	r15
 5c2:	0f 93       	push	r16
 5c4:	1f 93       	push	r17
 5c6:	cf 93       	push	r28
 5c8:	df 93       	push	r29
 5ca:	00 d0       	rcall	.+0      	; 0x5cc <nokia_lcd_write_char+0x18>
 5cc:	00 d0       	rcall	.+0      	; 0x5ce <nokia_lcd_write_char+0x1a>
 5ce:	1f 92       	push	r1
 5d0:	cd b7       	in	r28, 0x3d	; 61
 5d2:	de b7       	in	r29, 0x3e	; 62
 5d4:	f6 2e       	mov	r15, r22
 5d6:	28 2f       	mov	r18, r24
 5d8:	08 2e       	mov	r0, r24
 5da:	00 0c       	add	r0, r0
 5dc:	33 0b       	sbc	r19, r19
 5de:	80 32       	cpi	r24, 0x20	; 32
 5e0:	6c f0       	brlt	.+26     	; 0x5fc <nokia_lcd_write_char+0x48>
 5e2:	20 52       	subi	r18, 0x20	; 32
 5e4:	31 09       	sbc	r19, r1
 5e6:	85 e0       	ldi	r24, 0x05	; 5
 5e8:	82 9f       	mul	r24, r18
 5ea:	b0 01       	movw	r22, r0
 5ec:	83 9f       	mul	r24, r19
 5ee:	70 0d       	add	r23, r0
 5f0:	11 24       	eor	r1, r1
 5f2:	68 59       	subi	r22, 0x98	; 152
 5f4:	7f 4f       	sbci	r23, 0xFF	; 255
 5f6:	45 e0       	ldi	r20, 0x05	; 5
 5f8:	50 e0       	ldi	r21, 0x00	; 0
 5fa:	0e c0       	rjmp	.+28     	; 0x618 <nokia_lcd_write_char+0x64>
 5fc:	22 0f       	add	r18, r18
 5fe:	33 1f       	adc	r19, r19
 600:	f9 01       	movw	r30, r18
 602:	e2 5c       	subi	r30, 0xC2	; 194
 604:	fc 4f       	sbci	r31, 0xFC	; 252
 606:	00 81       	ld	r16, Z
 608:	11 81       	ldd	r17, Z+1	; 0x01
 60a:	01 15       	cp	r16, r1
 60c:	11 05       	cpc	r17, r1
 60e:	59 f4       	brne	.+22     	; 0x626 <nokia_lcd_write_char+0x72>
 610:	45 e0       	ldi	r20, 0x05	; 5
 612:	50 e0       	ldi	r21, 0x00	; 0
 614:	68 e6       	ldi	r22, 0x68	; 104
 616:	70 e0       	ldi	r23, 0x00	; 0
 618:	ce 01       	movw	r24, r28
 61a:	01 96       	adiw	r24, 0x01	; 1
 61c:	0e 94 15 07 	call	0xe2a	; 0xe2a <memcpy_P>
 620:	8e 01       	movw	r16, r28
 622:	0f 5f       	subi	r16, 0xFF	; 255
 624:	1f 4f       	sbci	r17, 0xFF	; 255
 626:	85 e0       	ldi	r24, 0x05	; 5
 628:	f8 9e       	mul	r15, r24
 62a:	50 01       	movw	r10, r0
 62c:	11 24       	eor	r1, r1
 62e:	97 e0       	ldi	r25, 0x07	; 7
 630:	f9 9e       	mul	r15, r25
 632:	40 01       	movw	r8, r0
 634:	11 24       	eor	r1, r1
 636:	d1 2c       	mov	r13, r1
 638:	8d 2d       	mov	r24, r13
 63a:	90 e0       	ldi	r25, 0x00	; 0
 63c:	8a 15       	cp	r24, r10
 63e:	9b 05       	cpc	r25, r11
 640:	44 f5       	brge	.+80     	; 0x692 <nokia_lcd_write_char+0xde>
 642:	e1 2c       	mov	r14, r1
 644:	8e 2d       	mov	r24, r14
 646:	90 e0       	ldi	r25, 0x00	; 0
 648:	88 15       	cp	r24, r8
 64a:	99 05       	cpc	r25, r9
 64c:	04 f5       	brge	.+64     	; 0x68e <nokia_lcd_write_char+0xda>
 64e:	8d 2d       	mov	r24, r13
 650:	6f 2d       	mov	r22, r15
 652:	0e 94 44 05 	call	0xa88	; 0xa88 <__udivmodqi4>
 656:	f8 01       	movw	r30, r16
 658:	e8 0f       	add	r30, r24
 65a:	f1 1d       	adc	r31, r1
 65c:	20 81       	ld	r18, Z
 65e:	30 e0       	ldi	r19, 0x00	; 0
 660:	8e 2d       	mov	r24, r14
 662:	0e 94 44 05 	call	0xa88	; 0xa88 <__udivmodqi4>
 666:	02 c0       	rjmp	.+4      	; 0x66c <nokia_lcd_write_char+0xb8>
 668:	35 95       	asr	r19
 66a:	27 95       	ror	r18
 66c:	8a 95       	dec	r24
 66e:	e2 f7       	brpl	.-8      	; 0x668 <nokia_lcd_write_char+0xb4>
 670:	60 91 25 03 	lds	r22, 0x0325	; 0x800325 <nokia_lcd+0x1f9>
 674:	80 91 24 03 	lds	r24, 0x0324	; 0x800324 <nokia_lcd+0x1f8>
 678:	6e 0d       	add	r22, r14
 67a:	20 ff       	sbrs	r18, 0
 67c:	02 c0       	rjmp	.+4      	; 0x682 <nokia_lcd_write_char+0xce>
 67e:	41 e0       	ldi	r20, 0x01	; 1
 680:	01 c0       	rjmp	.+2      	; 0x684 <nokia_lcd_write_char+0xd0>
 682:	40 e0       	ldi	r20, 0x00	; 0
 684:	8d 0d       	add	r24, r13
 686:	0e 94 bc 02 	call	0x578	; 0x578 <nokia_lcd_set_pixel>
 68a:	e3 94       	inc	r14
 68c:	db cf       	rjmp	.-74     	; 0x644 <nokia_lcd_write_char+0x90>
 68e:	d3 94       	inc	r13
 690:	d3 cf       	rjmp	.-90     	; 0x638 <nokia_lcd_write_char+0x84>
 692:	80 91 24 03 	lds	r24, 0x0324	; 0x800324 <nokia_lcd+0x1f8>
 696:	91 e0       	ldi	r25, 0x01	; 1
 698:	98 0f       	add	r25, r24
 69a:	8f 2d       	mov	r24, r15
 69c:	88 0f       	add	r24, r24
 69e:	88 0f       	add	r24, r24
 6a0:	8f 0d       	add	r24, r15
 6a2:	89 0f       	add	r24, r25
 6a4:	84 35       	cpi	r24, 0x54	; 84
 6a6:	18 f4       	brcc	.+6      	; 0x6ae <nokia_lcd_write_char+0xfa>
 6a8:	80 93 24 03 	sts	0x0324, r24	; 0x800324 <nokia_lcd+0x1f8>
 6ac:	0b c0       	rjmp	.+22     	; 0x6c4 <nokia_lcd_write_char+0x110>
 6ae:	10 92 24 03 	sts	0x0324, r1	; 0x800324 <nokia_lcd+0x1f8>
 6b2:	80 91 25 03 	lds	r24, 0x0325	; 0x800325 <nokia_lcd+0x1f9>
 6b6:	8f 5f       	subi	r24, 0xFF	; 255
 6b8:	97 e0       	ldi	r25, 0x07	; 7
 6ba:	f9 9e       	mul	r15, r25
 6bc:	80 0d       	add	r24, r0
 6be:	11 24       	eor	r1, r1
 6c0:	80 93 25 03 	sts	0x0325, r24	; 0x800325 <nokia_lcd+0x1f9>
 6c4:	80 91 25 03 	lds	r24, 0x0325	; 0x800325 <nokia_lcd+0x1f9>
 6c8:	80 33       	cpi	r24, 0x30	; 48
 6ca:	20 f0       	brcs	.+8      	; 0x6d4 <nokia_lcd_write_char+0x120>
 6cc:	10 92 24 03 	sts	0x0324, r1	; 0x800324 <nokia_lcd+0x1f8>
 6d0:	10 92 25 03 	sts	0x0325, r1	; 0x800325 <nokia_lcd+0x1f9>
 6d4:	0f 90       	pop	r0
 6d6:	0f 90       	pop	r0
 6d8:	0f 90       	pop	r0
 6da:	0f 90       	pop	r0
 6dc:	0f 90       	pop	r0
 6de:	df 91       	pop	r29
 6e0:	cf 91       	pop	r28
 6e2:	1f 91       	pop	r17
 6e4:	0f 91       	pop	r16
 6e6:	ff 90       	pop	r15
 6e8:	ef 90       	pop	r14
 6ea:	df 90       	pop	r13
 6ec:	bf 90       	pop	r11
 6ee:	af 90       	pop	r10
 6f0:	9f 90       	pop	r9
 6f2:	8f 90       	pop	r8
 6f4:	08 95       	ret

000006f6 <nokia_lcd_custom>:
 6f6:	80 32       	cpi	r24, 0x20	; 32
 6f8:	3c f4       	brge	.+14     	; 0x708 <nokia_lcd_custom+0x12>
 6fa:	e8 2f       	mov	r30, r24
 6fc:	ee 0f       	add	r30, r30
 6fe:	ff 0b       	sbc	r31, r31
 700:	e2 5c       	subi	r30, 0xC2	; 194
 702:	fc 4f       	sbci	r31, 0xFC	; 252
 704:	71 83       	std	Z+1, r23	; 0x01
 706:	60 83       	st	Z, r22
 708:	08 95       	ret

0000070a <nokia_lcd_write_string>:
 70a:	1f 93       	push	r17
 70c:	cf 93       	push	r28
 70e:	df 93       	push	r29
 710:	16 2f       	mov	r17, r22
 712:	ec 01       	movw	r28, r24
 714:	89 91       	ld	r24, Y+
 716:	88 23       	and	r24, r24
 718:	21 f0       	breq	.+8      	; 0x722 <nokia_lcd_write_string+0x18>
 71a:	61 2f       	mov	r22, r17
 71c:	0e 94 da 02 	call	0x5b4	; 0x5b4 <nokia_lcd_write_char>
 720:	f9 cf       	rjmp	.-14     	; 0x714 <nokia_lcd_write_string+0xa>
 722:	df 91       	pop	r29
 724:	cf 91       	pop	r28
 726:	1f 91       	pop	r17
 728:	08 95       	ret

0000072a <nokia_lcd_set_cursor>:
 72a:	80 93 24 03 	sts	0x0324, r24	; 0x800324 <nokia_lcd+0x1f8>
 72e:	60 93 25 03 	sts	0x0325, r22	; 0x800325 <nokia_lcd+0x1f9>
 732:	08 95       	ret

00000734 <nokia_lcd_render>:
 734:	cf 93       	push	r28
 736:	df 93       	push	r29
 738:	80 e8       	ldi	r24, 0x80	; 128
 73a:	0e 94 5a 02 	call	0x4b4	; 0x4b4 <write_cmd>
 73e:	80 e4       	ldi	r24, 0x40	; 64
 740:	0e 94 5a 02 	call	0x4b4	; 0x4b4 <write_cmd>
 744:	cc e2       	ldi	r28, 0x2C	; 44
 746:	d1 e0       	ldi	r29, 0x01	; 1
 748:	61 e0       	ldi	r22, 0x01	; 1
 74a:	89 91       	ld	r24, Y+
 74c:	0e 94 3e 02 	call	0x47c	; 0x47c <write>
 750:	83 e0       	ldi	r24, 0x03	; 3
 752:	c4 32       	cpi	r28, 0x24	; 36
 754:	d8 07       	cpc	r29, r24
 756:	c1 f7       	brne	.-16     	; 0x748 <nokia_lcd_render+0x14>
 758:	df 91       	pop	r29
 75a:	cf 91       	pop	r28
 75c:	08 95       	ret

0000075e <nokia_lcd_drawline>:
 75e:	4f 92       	push	r4
 760:	5f 92       	push	r5
 762:	6f 92       	push	r6
 764:	7f 92       	push	r7
 766:	8f 92       	push	r8
 768:	9f 92       	push	r9
 76a:	af 92       	push	r10
 76c:	bf 92       	push	r11
 76e:	cf 92       	push	r12
 770:	df 92       	push	r13
 772:	ef 92       	push	r14
 774:	ff 92       	push	r15
 776:	cf 93       	push	r28
 778:	df 93       	push	r29
 77a:	cd b7       	in	r28, 0x3d	; 61
 77c:	de b7       	in	r29, 0x3e	; 62
 77e:	2e 97       	sbiw	r28, 0x0e	; 14
 780:	0f b6       	in	r0, 0x3f	; 63
 782:	f8 94       	cli
 784:	de bf       	out	0x3e, r29	; 62
 786:	0f be       	out	0x3f, r0	; 63
 788:	cd bf       	out	0x3d, r28	; 61
 78a:	8d 87       	std	Y+13, r24	; 0x0d
 78c:	69 87       	std	Y+9, r22	; 0x09
 78e:	f2 2e       	mov	r15, r18
 790:	64 2f       	mov	r22, r20
 792:	70 e0       	ldi	r23, 0x00	; 0
 794:	68 1b       	sub	r22, r24
 796:	71 09       	sbc	r23, r1
 798:	07 2e       	mov	r0, r23
 79a:	00 0c       	add	r0, r0
 79c:	88 0b       	sbc	r24, r24
 79e:	99 0b       	sbc	r25, r25
 7a0:	0e 94 60 06 	call	0xcc0	; 0xcc0 <__floatsisf>
 7a4:	4b 01       	movw	r8, r22
 7a6:	5c 01       	movw	r10, r24
 7a8:	6f 2d       	mov	r22, r15
 7aa:	70 e0       	ldi	r23, 0x00	; 0
 7ac:	29 85       	ldd	r18, Y+9	; 0x09
 7ae:	62 1b       	sub	r22, r18
 7b0:	71 09       	sbc	r23, r1
 7b2:	07 2e       	mov	r0, r23
 7b4:	00 0c       	add	r0, r0
 7b6:	88 0b       	sbc	r24, r24
 7b8:	99 0b       	sbc	r25, r25
 7ba:	0e 94 60 06 	call	0xcc0	; 0xcc0 <__floatsisf>
 7be:	6b 01       	movw	r12, r22
 7c0:	7c 01       	movw	r14, r24
 7c2:	24 01       	movw	r4, r8
 7c4:	35 01       	movw	r6, r10
 7c6:	e8 94       	clt
 7c8:	77 f8       	bld	r7, 7
 7ca:	dc 01       	movw	r26, r24
 7cc:	cb 01       	movw	r24, r22
 7ce:	bf 77       	andi	r27, 0x7F	; 127
 7d0:	89 83       	std	Y+1, r24	; 0x01
 7d2:	9a 83       	std	Y+2, r25	; 0x02
 7d4:	ab 83       	std	Y+3, r26	; 0x03
 7d6:	bc 83       	std	Y+4, r27	; 0x04
 7d8:	9c 01       	movw	r18, r24
 7da:	ad 01       	movw	r20, r26
 7dc:	c3 01       	movw	r24, r6
 7de:	b2 01       	movw	r22, r4
 7e0:	0e 94 ec 06 	call	0xdd8	; 0xdd8 <__gesf2>
 7e4:	87 ff       	sbrs	r24, 7
 7e6:	04 c0       	rjmp	.+8      	; 0x7f0 <nokia_lcd_drawline+0x92>
 7e8:	49 80       	ldd	r4, Y+1	; 0x01
 7ea:	5a 80       	ldd	r5, Y+2	; 0x02
 7ec:	6b 80       	ldd	r6, Y+3	; 0x03
 7ee:	7c 80       	ldd	r7, Y+4	; 0x04
 7f0:	a3 01       	movw	r20, r6
 7f2:	92 01       	movw	r18, r4
 7f4:	c5 01       	movw	r24, r10
 7f6:	b4 01       	movw	r22, r8
 7f8:	0e 94 bd 05 	call	0xb7a	; 0xb7a <__divsf3>
 7fc:	69 83       	std	Y+1, r22	; 0x01
 7fe:	7a 83       	std	Y+2, r23	; 0x02
 800:	8b 83       	std	Y+3, r24	; 0x03
 802:	9c 83       	std	Y+4, r25	; 0x04
 804:	a3 01       	movw	r20, r6
 806:	92 01       	movw	r18, r4
 808:	c7 01       	movw	r24, r14
 80a:	b6 01       	movw	r22, r12
 80c:	0e 94 bd 05 	call	0xb7a	; 0xb7a <__divsf3>
 810:	6d 83       	std	Y+5, r22	; 0x05
 812:	7e 83       	std	Y+6, r23	; 0x06
 814:	8f 83       	std	Y+7, r24	; 0x07
 816:	98 87       	std	Y+8, r25	; 0x08
 818:	ad 85       	ldd	r26, Y+13	; 0x0d
 81a:	6a 2f       	mov	r22, r26
 81c:	70 e0       	ldi	r23, 0x00	; 0
 81e:	80 e0       	ldi	r24, 0x00	; 0
 820:	90 e0       	ldi	r25, 0x00	; 0
 822:	0e 94 5e 06 	call	0xcbc	; 0xcbc <__floatunsisf>
 826:	6b 01       	movw	r12, r22
 828:	7c 01       	movw	r14, r24
 82a:	b9 85       	ldd	r27, Y+9	; 0x09
 82c:	6b 2f       	mov	r22, r27
 82e:	70 e0       	ldi	r23, 0x00	; 0
 830:	80 e0       	ldi	r24, 0x00	; 0
 832:	90 e0       	ldi	r25, 0x00	; 0
 834:	0e 94 5e 06 	call	0xcbc	; 0xcbc <__floatunsisf>
 838:	4b 01       	movw	r8, r22
 83a:	5c 01       	movw	r10, r24
 83c:	21 e0       	ldi	r18, 0x01	; 1
 83e:	30 e0       	ldi	r19, 0x00	; 0
 840:	3e 87       	std	Y+14, r19	; 0x0e
 842:	2d 87       	std	Y+13, r18	; 0x0d
 844:	ad 85       	ldd	r26, Y+13	; 0x0d
 846:	be 85       	ldd	r27, Y+14	; 0x0e
 848:	bd 01       	movw	r22, r26
 84a:	bb 0f       	add	r27, r27
 84c:	88 0b       	sbc	r24, r24
 84e:	99 0b       	sbc	r25, r25
 850:	0e 94 60 06 	call	0xcc0	; 0xcc0 <__floatsisf>
 854:	9b 01       	movw	r18, r22
 856:	ac 01       	movw	r20, r24
 858:	c3 01       	movw	r24, r6
 85a:	b2 01       	movw	r22, r4
 85c:	0e 94 ec 06 	call	0xdd8	; 0xdd8 <__gesf2>
 860:	87 fd       	sbrc	r24, 7
 862:	2c c0       	rjmp	.+88     	; 0x8bc <nokia_lcd_drawline+0x15e>
 864:	c5 01       	movw	r24, r10
 866:	b4 01       	movw	r22, r8
 868:	0e 94 2f 06 	call	0xc5e	; 0xc5e <__fixunssfsi>
 86c:	69 87       	std	Y+9, r22	; 0x09
 86e:	7a 87       	std	Y+10, r23	; 0x0a
 870:	8b 87       	std	Y+11, r24	; 0x0b
 872:	9c 87       	std	Y+12, r25	; 0x0c
 874:	c7 01       	movw	r24, r14
 876:	b6 01       	movw	r22, r12
 878:	0e 94 2f 06 	call	0xc5e	; 0xc5e <__fixunssfsi>
 87c:	dc 01       	movw	r26, r24
 87e:	cb 01       	movw	r24, r22
 880:	41 e0       	ldi	r20, 0x01	; 1
 882:	69 85       	ldd	r22, Y+9	; 0x09
 884:	0e 94 bc 02 	call	0x578	; 0x578 <nokia_lcd_set_pixel>
 888:	29 81       	ldd	r18, Y+1	; 0x01
 88a:	3a 81       	ldd	r19, Y+2	; 0x02
 88c:	4b 81       	ldd	r20, Y+3	; 0x03
 88e:	5c 81       	ldd	r21, Y+4	; 0x04
 890:	c7 01       	movw	r24, r14
 892:	b6 01       	movw	r22, r12
 894:	0e 94 51 05 	call	0xaa2	; 0xaa2 <__addsf3>
 898:	6b 01       	movw	r12, r22
 89a:	7c 01       	movw	r14, r24
 89c:	2d 81       	ldd	r18, Y+5	; 0x05
 89e:	3e 81       	ldd	r19, Y+6	; 0x06
 8a0:	4f 81       	ldd	r20, Y+7	; 0x07
 8a2:	58 85       	ldd	r21, Y+8	; 0x08
 8a4:	c5 01       	movw	r24, r10
 8a6:	b4 01       	movw	r22, r8
 8a8:	0e 94 51 05 	call	0xaa2	; 0xaa2 <__addsf3>
 8ac:	4b 01       	movw	r8, r22
 8ae:	5c 01       	movw	r10, r24
 8b0:	8d 85       	ldd	r24, Y+13	; 0x0d
 8b2:	9e 85       	ldd	r25, Y+14	; 0x0e
 8b4:	01 96       	adiw	r24, 0x01	; 1
 8b6:	9e 87       	std	Y+14, r25	; 0x0e
 8b8:	8d 87       	std	Y+13, r24	; 0x0d
 8ba:	c4 cf       	rjmp	.-120    	; 0x844 <nokia_lcd_drawline+0xe6>
 8bc:	2e 96       	adiw	r28, 0x0e	; 14
 8be:	0f b6       	in	r0, 0x3f	; 63
 8c0:	f8 94       	cli
 8c2:	de bf       	out	0x3e, r29	; 62
 8c4:	0f be       	out	0x3f, r0	; 63
 8c6:	cd bf       	out	0x3d, r28	; 61
 8c8:	df 91       	pop	r29
 8ca:	cf 91       	pop	r28
 8cc:	ff 90       	pop	r15
 8ce:	ef 90       	pop	r14
 8d0:	df 90       	pop	r13
 8d2:	cf 90       	pop	r12
 8d4:	bf 90       	pop	r11
 8d6:	af 90       	pop	r10
 8d8:	9f 90       	pop	r9
 8da:	8f 90       	pop	r8
 8dc:	7f 90       	pop	r7
 8de:	6f 90       	pop	r6
 8e0:	5f 90       	pop	r5
 8e2:	4f 90       	pop	r4
 8e4:	08 95       	ret

000008e6 <nokia_lcd_drawrect>:
 8e6:	0f 93       	push	r16
 8e8:	1f 93       	push	r17
 8ea:	cf 93       	push	r28
 8ec:	df 93       	push	r29
 8ee:	c8 2f       	mov	r28, r24
 8f0:	16 2f       	mov	r17, r22
 8f2:	04 2f       	mov	r16, r20
 8f4:	d2 2f       	mov	r29, r18
 8f6:	26 2f       	mov	r18, r22
 8f8:	0e 94 af 03 	call	0x75e	; 0x75e <nokia_lcd_drawline>
 8fc:	2d 2f       	mov	r18, r29
 8fe:	40 2f       	mov	r20, r16
 900:	61 2f       	mov	r22, r17
 902:	80 2f       	mov	r24, r16
 904:	0e 94 af 03 	call	0x75e	; 0x75e <nokia_lcd_drawline>
 908:	2d 2f       	mov	r18, r29
 90a:	4c 2f       	mov	r20, r28
 90c:	6d 2f       	mov	r22, r29
 90e:	80 2f       	mov	r24, r16
 910:	0e 94 af 03 	call	0x75e	; 0x75e <nokia_lcd_drawline>
 914:	21 2f       	mov	r18, r17
 916:	4c 2f       	mov	r20, r28
 918:	6d 2f       	mov	r22, r29
 91a:	8c 2f       	mov	r24, r28
 91c:	df 91       	pop	r29
 91e:	cf 91       	pop	r28
 920:	1f 91       	pop	r17
 922:	0f 91       	pop	r16
 924:	0c 94 af 03 	jmp	0x75e	; 0x75e <nokia_lcd_drawline>

00000928 <nokia_lcd_drawcircle>:
 928:	7f 92       	push	r7
 92a:	8f 92       	push	r8
 92c:	9f 92       	push	r9
 92e:	af 92       	push	r10
 930:	bf 92       	push	r11
 932:	cf 92       	push	r12
 934:	df 92       	push	r13
 936:	ef 92       	push	r14
 938:	ff 92       	push	r15
 93a:	0f 93       	push	r16
 93c:	1f 93       	push	r17
 93e:	cf 93       	push	r28
 940:	df 93       	push	r29
 942:	d8 2e       	mov	r13, r24
 944:	c6 2e       	mov	r12, r22
 946:	c4 2f       	mov	r28, r20
 948:	d0 e0       	ldi	r29, 0x00	; 0
 94a:	e1 2c       	mov	r14, r1
 94c:	f1 2c       	mov	r15, r1
 94e:	00 e0       	ldi	r16, 0x00	; 0
 950:	10 e0       	ldi	r17, 0x00	; 0
 952:	41 e0       	ldi	r20, 0x01	; 1
 954:	ac 2c       	mov	r10, r12
 956:	a0 0e       	add	r10, r16
 958:	6a 2d       	mov	r22, r10
 95a:	bc 2e       	mov	r11, r28
 95c:	bd 0c       	add	r11, r13
 95e:	8b 2d       	mov	r24, r11
 960:	0e 94 bc 02 	call	0x578	; 0x578 <nokia_lcd_set_pixel>
 964:	41 e0       	ldi	r20, 0x01	; 1
 966:	8c 2e       	mov	r8, r28
 968:	8c 0c       	add	r8, r12
 96a:	68 2d       	mov	r22, r8
 96c:	9d 2c       	mov	r9, r13
 96e:	90 0e       	add	r9, r16
 970:	89 2d       	mov	r24, r9
 972:	0e 94 bc 02 	call	0x578	; 0x578 <nokia_lcd_set_pixel>
 976:	41 e0       	ldi	r20, 0x01	; 1
 978:	68 2d       	mov	r22, r8
 97a:	7d 2c       	mov	r7, r13
 97c:	70 1a       	sub	r7, r16
 97e:	87 2d       	mov	r24, r7
 980:	0e 94 bc 02 	call	0x578	; 0x578 <nokia_lcd_set_pixel>
 984:	41 e0       	ldi	r20, 0x01	; 1
 986:	6a 2d       	mov	r22, r10
 988:	8d 2c       	mov	r8, r13
 98a:	8c 1a       	sub	r8, r28
 98c:	88 2d       	mov	r24, r8
 98e:	0e 94 bc 02 	call	0x578	; 0x578 <nokia_lcd_set_pixel>
 992:	41 e0       	ldi	r20, 0x01	; 1
 994:	ac 2c       	mov	r10, r12
 996:	a0 1a       	sub	r10, r16
 998:	6a 2d       	mov	r22, r10
 99a:	88 2d       	mov	r24, r8
 99c:	0e 94 bc 02 	call	0x578	; 0x578 <nokia_lcd_set_pixel>
 9a0:	41 e0       	ldi	r20, 0x01	; 1
 9a2:	8c 2c       	mov	r8, r12
 9a4:	8c 1a       	sub	r8, r28
 9a6:	68 2d       	mov	r22, r8
 9a8:	87 2d       	mov	r24, r7
 9aa:	0e 94 bc 02 	call	0x578	; 0x578 <nokia_lcd_set_pixel>
 9ae:	41 e0       	ldi	r20, 0x01	; 1
 9b0:	68 2d       	mov	r22, r8
 9b2:	89 2d       	mov	r24, r9
 9b4:	0e 94 bc 02 	call	0x578	; 0x578 <nokia_lcd_set_pixel>
 9b8:	41 e0       	ldi	r20, 0x01	; 1
 9ba:	6a 2d       	mov	r22, r10
 9bc:	8b 2d       	mov	r24, r11
 9be:	0e 94 bc 02 	call	0x578	; 0x578 <nokia_lcd_set_pixel>
 9c2:	1e 14       	cp	r1, r14
 9c4:	1f 04       	cpc	r1, r15
 9c6:	5c f0       	brlt	.+22     	; 0x9de <nokia_lcd_drawcircle+0xb6>
 9c8:	0f 5f       	subi	r16, 0xFF	; 255
 9ca:	1f 4f       	sbci	r17, 0xFF	; 255
 9cc:	c8 01       	movw	r24, r16
 9ce:	88 0f       	add	r24, r24
 9d0:	99 1f       	adc	r25, r25
 9d2:	01 96       	adiw	r24, 0x01	; 1
 9d4:	e8 0e       	add	r14, r24
 9d6:	f9 1e       	adc	r15, r25
 9d8:	1e 14       	cp	r1, r14
 9da:	1f 04       	cpc	r1, r15
 9dc:	3c f4       	brge	.+14     	; 0x9ec <nokia_lcd_drawcircle+0xc4>
 9de:	21 97       	sbiw	r28, 0x01	; 1
 9e0:	ce 01       	movw	r24, r28
 9e2:	88 0f       	add	r24, r24
 9e4:	99 1f       	adc	r25, r25
 9e6:	01 96       	adiw	r24, 0x01	; 1
 9e8:	e8 1a       	sub	r14, r24
 9ea:	f9 0a       	sbc	r15, r25
 9ec:	c0 17       	cp	r28, r16
 9ee:	d1 07       	cpc	r29, r17
 9f0:	0c f0       	brlt	.+2      	; 0x9f4 <nokia_lcd_drawcircle+0xcc>
 9f2:	af cf       	rjmp	.-162    	; 0x952 <nokia_lcd_drawcircle+0x2a>
 9f4:	df 91       	pop	r29
 9f6:	cf 91       	pop	r28
 9f8:	1f 91       	pop	r17
 9fa:	0f 91       	pop	r16
 9fc:	ff 90       	pop	r15
 9fe:	ef 90       	pop	r14
 a00:	df 90       	pop	r13
 a02:	cf 90       	pop	r12
 a04:	bf 90       	pop	r11
 a06:	af 90       	pop	r10
 a08:	9f 90       	pop	r9
 a0a:	8f 90       	pop	r8
 a0c:	7f 90       	pop	r7
 a0e:	08 95       	ret

00000a10 <main>:
 a10:	8a b1       	in	r24, 0x0a	; 10
 a12:	80 7e       	andi	r24, 0xE0	; 224
 a14:	8a b9       	out	0x0a, r24	; 10
 a16:	8b b1       	in	r24, 0x0b	; 11
 a18:	8f 61       	ori	r24, 0x1F	; 31
 a1a:	8b b9       	out	0x0b, r24	; 11
 a1c:	80 91 68 00 	lds	r24, 0x0068	; 0x800068 <__DATA_REGION_ORIGIN__+0x8>
 a20:	84 60       	ori	r24, 0x04	; 4
 a22:	80 93 68 00 	sts	0x0068, r24	; 0x800068 <__DATA_REGION_ORIGIN__+0x8>
 a26:	80 91 6d 00 	lds	r24, 0x006D	; 0x80006d <__DATA_REGION_ORIGIN__+0xd>
 a2a:	8f 61       	ori	r24, 0x1F	; 31
 a2c:	80 93 6d 00 	sts	0x006D, r24	; 0x80006d <__DATA_REGION_ORIGIN__+0xd>
 a30:	80 91 68 00 	lds	r24, 0x0068	; 0x800068 <__DATA_REGION_ORIGIN__+0x8>
 a34:	84 60       	ori	r24, 0x04	; 4
 a36:	80 93 68 00 	sts	0x0068, r24	; 0x800068 <__DATA_REGION_ORIGIN__+0x8>
 a3a:	80 91 6d 00 	lds	r24, 0x006D	; 0x80006d <__DATA_REGION_ORIGIN__+0xd>
 a3e:	8f 61       	ori	r24, 0x1F	; 31
 a40:	80 93 6d 00 	sts	0x006D, r24	; 0x80006d <__DATA_REGION_ORIGIN__+0xd>
 a44:	80 91 81 00 	lds	r24, 0x0081	; 0x800081 <__DATA_REGION_ORIGIN__+0x21>
 a48:	8d 60       	ori	r24, 0x0D	; 13
 a4a:	80 93 81 00 	sts	0x0081, r24	; 0x800081 <__DATA_REGION_ORIGIN__+0x21>
 a4e:	8d e3       	ldi	r24, 0x3D	; 61
 a50:	80 93 89 00 	sts	0x0089, r24	; 0x800089 <__DATA_REGION_ORIGIN__+0x29>
 a54:	88 e0       	ldi	r24, 0x08	; 8
 a56:	80 93 88 00 	sts	0x0088, r24	; 0x800088 <__DATA_REGION_ORIGIN__+0x28>
 a5a:	80 91 6f 00 	lds	r24, 0x006F	; 0x80006f <__DATA_REGION_ORIGIN__+0xf>
 a5e:	82 60       	ori	r24, 0x02	; 2
 a60:	80 93 6f 00 	sts	0x006F, r24	; 0x80006f <__DATA_REGION_ORIGIN__+0xf>
 a64:	78 94       	sei
 a66:	0e 94 5d 02 	call	0x4ba	; 0x4ba <nokia_lcd_init>
 a6a:	81 e0       	ldi	r24, 0x01	; 1
 a6c:	0e 94 b5 02 	call	0x56a	; 0x56a <nokia_lcd_power>
 a70:	0e 94 a0 02 	call	0x540	; 0x540 <nokia_lcd_clear>
 a74:	6c e0       	ldi	r22, 0x0C	; 12
 a76:	80 e0       	ldi	r24, 0x00	; 0
 a78:	0e 94 95 03 	call	0x72a	; 0x72a <nokia_lcd_set_cursor>
 a7c:	62 e0       	ldi	r22, 0x02	; 2
 a7e:	8f e1       	ldi	r24, 0x1F	; 31
 a80:	91 e0       	ldi	r25, 0x01	; 1
 a82:	0e 94 85 03 	call	0x70a	; 0x70a <nokia_lcd_write_string>
 a86:	ff cf       	rjmp	.-2      	; 0xa86 <main+0x76>

00000a88 <__udivmodqi4>:
 a88:	99 1b       	sub	r25, r25
 a8a:	79 e0       	ldi	r23, 0x09	; 9
 a8c:	04 c0       	rjmp	.+8      	; 0xa96 <__udivmodqi4_ep>

00000a8e <__udivmodqi4_loop>:
 a8e:	99 1f       	adc	r25, r25
 a90:	96 17       	cp	r25, r22
 a92:	08 f0       	brcs	.+2      	; 0xa96 <__udivmodqi4_ep>
 a94:	96 1b       	sub	r25, r22

00000a96 <__udivmodqi4_ep>:
 a96:	88 1f       	adc	r24, r24
 a98:	7a 95       	dec	r23
 a9a:	c9 f7       	brne	.-14     	; 0xa8e <__udivmodqi4_loop>
 a9c:	80 95       	com	r24
 a9e:	08 95       	ret

00000aa0 <__subsf3>:
 aa0:	50 58       	subi	r21, 0x80	; 128

00000aa2 <__addsf3>:
 aa2:	bb 27       	eor	r27, r27
 aa4:	aa 27       	eor	r26, r26
 aa6:	0e 94 68 05 	call	0xad0	; 0xad0 <__addsf3x>
 aaa:	0c 94 b2 06 	jmp	0xd64	; 0xd64 <__fp_round>
 aae:	0e 94 a4 06 	call	0xd48	; 0xd48 <__fp_pscA>
 ab2:	38 f0       	brcs	.+14     	; 0xac2 <__addsf3+0x20>
 ab4:	0e 94 ab 06 	call	0xd56	; 0xd56 <__fp_pscB>
 ab8:	20 f0       	brcs	.+8      	; 0xac2 <__addsf3+0x20>
 aba:	39 f4       	brne	.+14     	; 0xaca <__addsf3+0x28>
 abc:	9f 3f       	cpi	r25, 0xFF	; 255
 abe:	19 f4       	brne	.+6      	; 0xac6 <__addsf3+0x24>
 ac0:	26 f4       	brtc	.+8      	; 0xaca <__addsf3+0x28>
 ac2:	0c 94 a1 06 	jmp	0xd42	; 0xd42 <__fp_nan>
 ac6:	0e f4       	brtc	.+2      	; 0xaca <__addsf3+0x28>
 ac8:	e0 95       	com	r30
 aca:	e7 fb       	bst	r30, 7
 acc:	0c 94 9b 06 	jmp	0xd36	; 0xd36 <__fp_inf>

00000ad0 <__addsf3x>:
 ad0:	e9 2f       	mov	r30, r25
 ad2:	0e 94 c3 06 	call	0xd86	; 0xd86 <__fp_split3>
 ad6:	58 f3       	brcs	.-42     	; 0xaae <__addsf3+0xc>
 ad8:	ba 17       	cp	r27, r26
 ada:	62 07       	cpc	r22, r18
 adc:	73 07       	cpc	r23, r19
 ade:	84 07       	cpc	r24, r20
 ae0:	95 07       	cpc	r25, r21
 ae2:	20 f0       	brcs	.+8      	; 0xaec <__addsf3x+0x1c>
 ae4:	79 f4       	brne	.+30     	; 0xb04 <__addsf3x+0x34>
 ae6:	a6 f5       	brtc	.+104    	; 0xb50 <__addsf3x+0x80>
 ae8:	0c 94 e5 06 	jmp	0xdca	; 0xdca <__fp_zero>
 aec:	0e f4       	brtc	.+2      	; 0xaf0 <__addsf3x+0x20>
 aee:	e0 95       	com	r30
 af0:	0b 2e       	mov	r0, r27
 af2:	ba 2f       	mov	r27, r26
 af4:	a0 2d       	mov	r26, r0
 af6:	0b 01       	movw	r0, r22
 af8:	b9 01       	movw	r22, r18
 afa:	90 01       	movw	r18, r0
 afc:	0c 01       	movw	r0, r24
 afe:	ca 01       	movw	r24, r20
 b00:	a0 01       	movw	r20, r0
 b02:	11 24       	eor	r1, r1
 b04:	ff 27       	eor	r31, r31
 b06:	59 1b       	sub	r21, r25
 b08:	99 f0       	breq	.+38     	; 0xb30 <__addsf3x+0x60>
 b0a:	59 3f       	cpi	r21, 0xF9	; 249
 b0c:	50 f4       	brcc	.+20     	; 0xb22 <__addsf3x+0x52>
 b0e:	50 3e       	cpi	r21, 0xE0	; 224
 b10:	68 f1       	brcs	.+90     	; 0xb6c <__addsf3x+0x9c>
 b12:	1a 16       	cp	r1, r26
 b14:	f0 40       	sbci	r31, 0x00	; 0
 b16:	a2 2f       	mov	r26, r18
 b18:	23 2f       	mov	r18, r19
 b1a:	34 2f       	mov	r19, r20
 b1c:	44 27       	eor	r20, r20
 b1e:	58 5f       	subi	r21, 0xF8	; 248
 b20:	f3 cf       	rjmp	.-26     	; 0xb08 <__addsf3x+0x38>
 b22:	46 95       	lsr	r20
 b24:	37 95       	ror	r19
 b26:	27 95       	ror	r18
 b28:	a7 95       	ror	r26
 b2a:	f0 40       	sbci	r31, 0x00	; 0
 b2c:	53 95       	inc	r21
 b2e:	c9 f7       	brne	.-14     	; 0xb22 <__addsf3x+0x52>
 b30:	7e f4       	brtc	.+30     	; 0xb50 <__addsf3x+0x80>
 b32:	1f 16       	cp	r1, r31
 b34:	ba 0b       	sbc	r27, r26
 b36:	62 0b       	sbc	r22, r18
 b38:	73 0b       	sbc	r23, r19
 b3a:	84 0b       	sbc	r24, r20
 b3c:	ba f0       	brmi	.+46     	; 0xb6c <__addsf3x+0x9c>
 b3e:	91 50       	subi	r25, 0x01	; 1
 b40:	a1 f0       	breq	.+40     	; 0xb6a <__addsf3x+0x9a>
 b42:	ff 0f       	add	r31, r31
 b44:	bb 1f       	adc	r27, r27
 b46:	66 1f       	adc	r22, r22
 b48:	77 1f       	adc	r23, r23
 b4a:	88 1f       	adc	r24, r24
 b4c:	c2 f7       	brpl	.-16     	; 0xb3e <__addsf3x+0x6e>
 b4e:	0e c0       	rjmp	.+28     	; 0xb6c <__addsf3x+0x9c>
 b50:	ba 0f       	add	r27, r26
 b52:	62 1f       	adc	r22, r18
 b54:	73 1f       	adc	r23, r19
 b56:	84 1f       	adc	r24, r20
 b58:	48 f4       	brcc	.+18     	; 0xb6c <__addsf3x+0x9c>
 b5a:	87 95       	ror	r24
 b5c:	77 95       	ror	r23
 b5e:	67 95       	ror	r22
 b60:	b7 95       	ror	r27
 b62:	f7 95       	ror	r31
 b64:	9e 3f       	cpi	r25, 0xFE	; 254
 b66:	08 f0       	brcs	.+2      	; 0xb6a <__addsf3x+0x9a>
 b68:	b0 cf       	rjmp	.-160    	; 0xaca <__addsf3+0x28>
 b6a:	93 95       	inc	r25
 b6c:	88 0f       	add	r24, r24
 b6e:	08 f0       	brcs	.+2      	; 0xb72 <__addsf3x+0xa2>
 b70:	99 27       	eor	r25, r25
 b72:	ee 0f       	add	r30, r30
 b74:	97 95       	ror	r25
 b76:	87 95       	ror	r24
 b78:	08 95       	ret

00000b7a <__divsf3>:
 b7a:	0e 94 d1 05 	call	0xba2	; 0xba2 <__divsf3x>
 b7e:	0c 94 b2 06 	jmp	0xd64	; 0xd64 <__fp_round>
 b82:	0e 94 ab 06 	call	0xd56	; 0xd56 <__fp_pscB>
 b86:	58 f0       	brcs	.+22     	; 0xb9e <__divsf3+0x24>
 b88:	0e 94 a4 06 	call	0xd48	; 0xd48 <__fp_pscA>
 b8c:	40 f0       	brcs	.+16     	; 0xb9e <__divsf3+0x24>
 b8e:	29 f4       	brne	.+10     	; 0xb9a <__divsf3+0x20>
 b90:	5f 3f       	cpi	r21, 0xFF	; 255
 b92:	29 f0       	breq	.+10     	; 0xb9e <__divsf3+0x24>
 b94:	0c 94 9b 06 	jmp	0xd36	; 0xd36 <__fp_inf>
 b98:	51 11       	cpse	r21, r1
 b9a:	0c 94 e6 06 	jmp	0xdcc	; 0xdcc <__fp_szero>
 b9e:	0c 94 a1 06 	jmp	0xd42	; 0xd42 <__fp_nan>

00000ba2 <__divsf3x>:
 ba2:	0e 94 c3 06 	call	0xd86	; 0xd86 <__fp_split3>
 ba6:	68 f3       	brcs	.-38     	; 0xb82 <__divsf3+0x8>

00000ba8 <__divsf3_pse>:
 ba8:	99 23       	and	r25, r25
 baa:	b1 f3       	breq	.-20     	; 0xb98 <__divsf3+0x1e>
 bac:	55 23       	and	r21, r21
 bae:	91 f3       	breq	.-28     	; 0xb94 <__divsf3+0x1a>
 bb0:	95 1b       	sub	r25, r21
 bb2:	55 0b       	sbc	r21, r21
 bb4:	bb 27       	eor	r27, r27
 bb6:	aa 27       	eor	r26, r26
 bb8:	62 17       	cp	r22, r18
 bba:	73 07       	cpc	r23, r19
 bbc:	84 07       	cpc	r24, r20
 bbe:	38 f0       	brcs	.+14     	; 0xbce <__divsf3_pse+0x26>
 bc0:	9f 5f       	subi	r25, 0xFF	; 255
 bc2:	5f 4f       	sbci	r21, 0xFF	; 255
 bc4:	22 0f       	add	r18, r18
 bc6:	33 1f       	adc	r19, r19
 bc8:	44 1f       	adc	r20, r20
 bca:	aa 1f       	adc	r26, r26
 bcc:	a9 f3       	breq	.-22     	; 0xbb8 <__divsf3_pse+0x10>
 bce:	35 d0       	rcall	.+106    	; 0xc3a <__divsf3_pse+0x92>
 bd0:	0e 2e       	mov	r0, r30
 bd2:	3a f0       	brmi	.+14     	; 0xbe2 <__divsf3_pse+0x3a>
 bd4:	e0 e8       	ldi	r30, 0x80	; 128
 bd6:	32 d0       	rcall	.+100    	; 0xc3c <__divsf3_pse+0x94>
 bd8:	91 50       	subi	r25, 0x01	; 1
 bda:	50 40       	sbci	r21, 0x00	; 0
 bdc:	e6 95       	lsr	r30
 bde:	00 1c       	adc	r0, r0
 be0:	ca f7       	brpl	.-14     	; 0xbd4 <__divsf3_pse+0x2c>
 be2:	2b d0       	rcall	.+86     	; 0xc3a <__divsf3_pse+0x92>
 be4:	fe 2f       	mov	r31, r30
 be6:	29 d0       	rcall	.+82     	; 0xc3a <__divsf3_pse+0x92>
 be8:	66 0f       	add	r22, r22
 bea:	77 1f       	adc	r23, r23
 bec:	88 1f       	adc	r24, r24
 bee:	bb 1f       	adc	r27, r27
 bf0:	26 17       	cp	r18, r22
 bf2:	37 07       	cpc	r19, r23
 bf4:	48 07       	cpc	r20, r24
 bf6:	ab 07       	cpc	r26, r27
 bf8:	b0 e8       	ldi	r27, 0x80	; 128
 bfa:	09 f0       	breq	.+2      	; 0xbfe <__divsf3_pse+0x56>
 bfc:	bb 0b       	sbc	r27, r27
 bfe:	80 2d       	mov	r24, r0
 c00:	bf 01       	movw	r22, r30
 c02:	ff 27       	eor	r31, r31
 c04:	93 58       	subi	r25, 0x83	; 131
 c06:	5f 4f       	sbci	r21, 0xFF	; 255
 c08:	3a f0       	brmi	.+14     	; 0xc18 <__divsf3_pse+0x70>
 c0a:	9e 3f       	cpi	r25, 0xFE	; 254
 c0c:	51 05       	cpc	r21, r1
 c0e:	78 f0       	brcs	.+30     	; 0xc2e <__divsf3_pse+0x86>
 c10:	0c 94 9b 06 	jmp	0xd36	; 0xd36 <__fp_inf>
 c14:	0c 94 e6 06 	jmp	0xdcc	; 0xdcc <__fp_szero>
 c18:	5f 3f       	cpi	r21, 0xFF	; 255
 c1a:	e4 f3       	brlt	.-8      	; 0xc14 <__divsf3_pse+0x6c>
 c1c:	98 3e       	cpi	r25, 0xE8	; 232
 c1e:	d4 f3       	brlt	.-12     	; 0xc14 <__divsf3_pse+0x6c>
 c20:	86 95       	lsr	r24
 c22:	77 95       	ror	r23
 c24:	67 95       	ror	r22
 c26:	b7 95       	ror	r27
 c28:	f7 95       	ror	r31
 c2a:	9f 5f       	subi	r25, 0xFF	; 255
 c2c:	c9 f7       	brne	.-14     	; 0xc20 <__divsf3_pse+0x78>
 c2e:	88 0f       	add	r24, r24
 c30:	91 1d       	adc	r25, r1
 c32:	96 95       	lsr	r25
 c34:	87 95       	ror	r24
 c36:	97 f9       	bld	r25, 7
 c38:	08 95       	ret
 c3a:	e1 e0       	ldi	r30, 0x01	; 1
 c3c:	66 0f       	add	r22, r22
 c3e:	77 1f       	adc	r23, r23
 c40:	88 1f       	adc	r24, r24
 c42:	bb 1f       	adc	r27, r27
 c44:	62 17       	cp	r22, r18
 c46:	73 07       	cpc	r23, r19
 c48:	84 07       	cpc	r24, r20
 c4a:	ba 07       	cpc	r27, r26
 c4c:	20 f0       	brcs	.+8      	; 0xc56 <__divsf3_pse+0xae>
 c4e:	62 1b       	sub	r22, r18
 c50:	73 0b       	sbc	r23, r19
 c52:	84 0b       	sbc	r24, r20
 c54:	ba 0b       	sbc	r27, r26
 c56:	ee 1f       	adc	r30, r30
 c58:	88 f7       	brcc	.-30     	; 0xc3c <__divsf3_pse+0x94>
 c5a:	e0 95       	com	r30
 c5c:	08 95       	ret

00000c5e <__fixunssfsi>:
 c5e:	0e 94 cb 06 	call	0xd96	; 0xd96 <__fp_splitA>
 c62:	88 f0       	brcs	.+34     	; 0xc86 <__fixunssfsi+0x28>
 c64:	9f 57       	subi	r25, 0x7F	; 127
 c66:	98 f0       	brcs	.+38     	; 0xc8e <__fixunssfsi+0x30>
 c68:	b9 2f       	mov	r27, r25
 c6a:	99 27       	eor	r25, r25
 c6c:	b7 51       	subi	r27, 0x17	; 23
 c6e:	b0 f0       	brcs	.+44     	; 0xc9c <__fixunssfsi+0x3e>
 c70:	e1 f0       	breq	.+56     	; 0xcaa <__fixunssfsi+0x4c>
 c72:	66 0f       	add	r22, r22
 c74:	77 1f       	adc	r23, r23
 c76:	88 1f       	adc	r24, r24
 c78:	99 1f       	adc	r25, r25
 c7a:	1a f0       	brmi	.+6      	; 0xc82 <__fixunssfsi+0x24>
 c7c:	ba 95       	dec	r27
 c7e:	c9 f7       	brne	.-14     	; 0xc72 <__fixunssfsi+0x14>
 c80:	14 c0       	rjmp	.+40     	; 0xcaa <__fixunssfsi+0x4c>
 c82:	b1 30       	cpi	r27, 0x01	; 1
 c84:	91 f0       	breq	.+36     	; 0xcaa <__fixunssfsi+0x4c>
 c86:	0e 94 e5 06 	call	0xdca	; 0xdca <__fp_zero>
 c8a:	b1 e0       	ldi	r27, 0x01	; 1
 c8c:	08 95       	ret
 c8e:	0c 94 e5 06 	jmp	0xdca	; 0xdca <__fp_zero>
 c92:	67 2f       	mov	r22, r23
 c94:	78 2f       	mov	r23, r24
 c96:	88 27       	eor	r24, r24
 c98:	b8 5f       	subi	r27, 0xF8	; 248
 c9a:	39 f0       	breq	.+14     	; 0xcaa <__fixunssfsi+0x4c>
 c9c:	b9 3f       	cpi	r27, 0xF9	; 249
 c9e:	cc f3       	brlt	.-14     	; 0xc92 <__fixunssfsi+0x34>
 ca0:	86 95       	lsr	r24
 ca2:	77 95       	ror	r23
 ca4:	67 95       	ror	r22
 ca6:	b3 95       	inc	r27
 ca8:	d9 f7       	brne	.-10     	; 0xca0 <__fixunssfsi+0x42>
 caa:	3e f4       	brtc	.+14     	; 0xcba <__fixunssfsi+0x5c>
 cac:	90 95       	com	r25
 cae:	80 95       	com	r24
 cb0:	70 95       	com	r23
 cb2:	61 95       	neg	r22
 cb4:	7f 4f       	sbci	r23, 0xFF	; 255
 cb6:	8f 4f       	sbci	r24, 0xFF	; 255
 cb8:	9f 4f       	sbci	r25, 0xFF	; 255
 cba:	08 95       	ret

00000cbc <__floatunsisf>:
 cbc:	e8 94       	clt
 cbe:	09 c0       	rjmp	.+18     	; 0xcd2 <__floatsisf+0x12>

00000cc0 <__floatsisf>:
 cc0:	97 fb       	bst	r25, 7
 cc2:	3e f4       	brtc	.+14     	; 0xcd2 <__floatsisf+0x12>
 cc4:	90 95       	com	r25
 cc6:	80 95       	com	r24
 cc8:	70 95       	com	r23
 cca:	61 95       	neg	r22
 ccc:	7f 4f       	sbci	r23, 0xFF	; 255
 cce:	8f 4f       	sbci	r24, 0xFF	; 255
 cd0:	9f 4f       	sbci	r25, 0xFF	; 255
 cd2:	99 23       	and	r25, r25
 cd4:	a9 f0       	breq	.+42     	; 0xd00 <__floatsisf+0x40>
 cd6:	f9 2f       	mov	r31, r25
 cd8:	96 e9       	ldi	r25, 0x96	; 150
 cda:	bb 27       	eor	r27, r27
 cdc:	93 95       	inc	r25
 cde:	f6 95       	lsr	r31
 ce0:	87 95       	ror	r24
 ce2:	77 95       	ror	r23
 ce4:	67 95       	ror	r22
 ce6:	b7 95       	ror	r27
 ce8:	f1 11       	cpse	r31, r1
 cea:	f8 cf       	rjmp	.-16     	; 0xcdc <__floatsisf+0x1c>
 cec:	fa f4       	brpl	.+62     	; 0xd2c <__floatsisf+0x6c>
 cee:	bb 0f       	add	r27, r27
 cf0:	11 f4       	brne	.+4      	; 0xcf6 <__floatsisf+0x36>
 cf2:	60 ff       	sbrs	r22, 0
 cf4:	1b c0       	rjmp	.+54     	; 0xd2c <__floatsisf+0x6c>
 cf6:	6f 5f       	subi	r22, 0xFF	; 255
 cf8:	7f 4f       	sbci	r23, 0xFF	; 255
 cfa:	8f 4f       	sbci	r24, 0xFF	; 255
 cfc:	9f 4f       	sbci	r25, 0xFF	; 255
 cfe:	16 c0       	rjmp	.+44     	; 0xd2c <__floatsisf+0x6c>
 d00:	88 23       	and	r24, r24
 d02:	11 f0       	breq	.+4      	; 0xd08 <__floatsisf+0x48>
 d04:	96 e9       	ldi	r25, 0x96	; 150
 d06:	11 c0       	rjmp	.+34     	; 0xd2a <__floatsisf+0x6a>
 d08:	77 23       	and	r23, r23
 d0a:	21 f0       	breq	.+8      	; 0xd14 <__floatsisf+0x54>
 d0c:	9e e8       	ldi	r25, 0x8E	; 142
 d0e:	87 2f       	mov	r24, r23
 d10:	76 2f       	mov	r23, r22
 d12:	05 c0       	rjmp	.+10     	; 0xd1e <__floatsisf+0x5e>
 d14:	66 23       	and	r22, r22
 d16:	71 f0       	breq	.+28     	; 0xd34 <__floatsisf+0x74>
 d18:	96 e8       	ldi	r25, 0x86	; 134
 d1a:	86 2f       	mov	r24, r22
 d1c:	70 e0       	ldi	r23, 0x00	; 0
 d1e:	60 e0       	ldi	r22, 0x00	; 0
 d20:	2a f0       	brmi	.+10     	; 0xd2c <__floatsisf+0x6c>
 d22:	9a 95       	dec	r25
 d24:	66 0f       	add	r22, r22
 d26:	77 1f       	adc	r23, r23
 d28:	88 1f       	adc	r24, r24
 d2a:	da f7       	brpl	.-10     	; 0xd22 <__floatsisf+0x62>
 d2c:	88 0f       	add	r24, r24
 d2e:	96 95       	lsr	r25
 d30:	87 95       	ror	r24
 d32:	97 f9       	bld	r25, 7
 d34:	08 95       	ret

00000d36 <__fp_inf>:
 d36:	97 f9       	bld	r25, 7
 d38:	9f 67       	ori	r25, 0x7F	; 127
 d3a:	80 e8       	ldi	r24, 0x80	; 128
 d3c:	70 e0       	ldi	r23, 0x00	; 0
 d3e:	60 e0       	ldi	r22, 0x00	; 0
 d40:	08 95       	ret

00000d42 <__fp_nan>:
 d42:	9f ef       	ldi	r25, 0xFF	; 255
 d44:	80 ec       	ldi	r24, 0xC0	; 192
 d46:	08 95       	ret

00000d48 <__fp_pscA>:
 d48:	00 24       	eor	r0, r0
 d4a:	0a 94       	dec	r0
 d4c:	16 16       	cp	r1, r22
 d4e:	17 06       	cpc	r1, r23
 d50:	18 06       	cpc	r1, r24
 d52:	09 06       	cpc	r0, r25
 d54:	08 95       	ret

00000d56 <__fp_pscB>:
 d56:	00 24       	eor	r0, r0
 d58:	0a 94       	dec	r0
 d5a:	12 16       	cp	r1, r18
 d5c:	13 06       	cpc	r1, r19
 d5e:	14 06       	cpc	r1, r20
 d60:	05 06       	cpc	r0, r21
 d62:	08 95       	ret

00000d64 <__fp_round>:
 d64:	09 2e       	mov	r0, r25
 d66:	03 94       	inc	r0
 d68:	00 0c       	add	r0, r0
 d6a:	11 f4       	brne	.+4      	; 0xd70 <__fp_round+0xc>
 d6c:	88 23       	and	r24, r24
 d6e:	52 f0       	brmi	.+20     	; 0xd84 <__fp_round+0x20>
 d70:	bb 0f       	add	r27, r27
 d72:	40 f4       	brcc	.+16     	; 0xd84 <__fp_round+0x20>
 d74:	bf 2b       	or	r27, r31
 d76:	11 f4       	brne	.+4      	; 0xd7c <__fp_round+0x18>
 d78:	60 ff       	sbrs	r22, 0
 d7a:	04 c0       	rjmp	.+8      	; 0xd84 <__fp_round+0x20>
 d7c:	6f 5f       	subi	r22, 0xFF	; 255
 d7e:	7f 4f       	sbci	r23, 0xFF	; 255
 d80:	8f 4f       	sbci	r24, 0xFF	; 255
 d82:	9f 4f       	sbci	r25, 0xFF	; 255
 d84:	08 95       	ret

00000d86 <__fp_split3>:
 d86:	57 fd       	sbrc	r21, 7
 d88:	90 58       	subi	r25, 0x80	; 128
 d8a:	44 0f       	add	r20, r20
 d8c:	55 1f       	adc	r21, r21
 d8e:	59 f0       	breq	.+22     	; 0xda6 <__fp_splitA+0x10>
 d90:	5f 3f       	cpi	r21, 0xFF	; 255
 d92:	71 f0       	breq	.+28     	; 0xdb0 <__fp_splitA+0x1a>
 d94:	47 95       	ror	r20

00000d96 <__fp_splitA>:
 d96:	88 0f       	add	r24, r24
 d98:	97 fb       	bst	r25, 7
 d9a:	99 1f       	adc	r25, r25
 d9c:	61 f0       	breq	.+24     	; 0xdb6 <__fp_splitA+0x20>
 d9e:	9f 3f       	cpi	r25, 0xFF	; 255
 da0:	79 f0       	breq	.+30     	; 0xdc0 <__fp_splitA+0x2a>
 da2:	87 95       	ror	r24
 da4:	08 95       	ret
 da6:	12 16       	cp	r1, r18
 da8:	13 06       	cpc	r1, r19
 daa:	14 06       	cpc	r1, r20
 dac:	55 1f       	adc	r21, r21
 dae:	f2 cf       	rjmp	.-28     	; 0xd94 <__fp_split3+0xe>
 db0:	46 95       	lsr	r20
 db2:	f1 df       	rcall	.-30     	; 0xd96 <__fp_splitA>
 db4:	08 c0       	rjmp	.+16     	; 0xdc6 <__fp_splitA+0x30>
 db6:	16 16       	cp	r1, r22
 db8:	17 06       	cpc	r1, r23
 dba:	18 06       	cpc	r1, r24
 dbc:	99 1f       	adc	r25, r25
 dbe:	f1 cf       	rjmp	.-30     	; 0xda2 <__fp_splitA+0xc>
 dc0:	86 95       	lsr	r24
 dc2:	71 05       	cpc	r23, r1
 dc4:	61 05       	cpc	r22, r1
 dc6:	08 94       	sec
 dc8:	08 95       	ret

00000dca <__fp_zero>:
 dca:	e8 94       	clt

00000dcc <__fp_szero>:
 dcc:	bb 27       	eor	r27, r27
 dce:	66 27       	eor	r22, r22
 dd0:	77 27       	eor	r23, r23
 dd2:	cb 01       	movw	r24, r22
 dd4:	97 f9       	bld	r25, 7
 dd6:	08 95       	ret

00000dd8 <__gesf2>:
 dd8:	0e 94 f1 06 	call	0xde2	; 0xde2 <__fp_cmp>
 ddc:	08 f4       	brcc	.+2      	; 0xde0 <__gesf2+0x8>
 dde:	8f ef       	ldi	r24, 0xFF	; 255
 de0:	08 95       	ret

00000de2 <__fp_cmp>:
 de2:	99 0f       	add	r25, r25
 de4:	00 08       	sbc	r0, r0
 de6:	55 0f       	add	r21, r21
 de8:	aa 0b       	sbc	r26, r26
 dea:	e0 e8       	ldi	r30, 0x80	; 128
 dec:	fe ef       	ldi	r31, 0xFE	; 254
 dee:	16 16       	cp	r1, r22
 df0:	17 06       	cpc	r1, r23
 df2:	e8 07       	cpc	r30, r24
 df4:	f9 07       	cpc	r31, r25
 df6:	c0 f0       	brcs	.+48     	; 0xe28 <__fp_cmp+0x46>
 df8:	12 16       	cp	r1, r18
 dfa:	13 06       	cpc	r1, r19
 dfc:	e4 07       	cpc	r30, r20
 dfe:	f5 07       	cpc	r31, r21
 e00:	98 f0       	brcs	.+38     	; 0xe28 <__fp_cmp+0x46>
 e02:	62 1b       	sub	r22, r18
 e04:	73 0b       	sbc	r23, r19
 e06:	84 0b       	sbc	r24, r20
 e08:	95 0b       	sbc	r25, r21
 e0a:	39 f4       	brne	.+14     	; 0xe1a <__fp_cmp+0x38>
 e0c:	0a 26       	eor	r0, r26
 e0e:	61 f0       	breq	.+24     	; 0xe28 <__fp_cmp+0x46>
 e10:	23 2b       	or	r18, r19
 e12:	24 2b       	or	r18, r20
 e14:	25 2b       	or	r18, r21
 e16:	21 f4       	brne	.+8      	; 0xe20 <__fp_cmp+0x3e>
 e18:	08 95       	ret
 e1a:	0a 26       	eor	r0, r26
 e1c:	09 f4       	brne	.+2      	; 0xe20 <__fp_cmp+0x3e>
 e1e:	a1 40       	sbci	r26, 0x01	; 1
 e20:	a6 95       	lsr	r26
 e22:	8f ef       	ldi	r24, 0xFF	; 255
 e24:	81 1d       	adc	r24, r1
 e26:	81 1d       	adc	r24, r1
 e28:	08 95       	ret

00000e2a <memcpy_P>:
 e2a:	fb 01       	movw	r30, r22
 e2c:	dc 01       	movw	r26, r24
 e2e:	02 c0       	rjmp	.+4      	; 0xe34 <memcpy_P+0xa>
 e30:	05 90       	lpm	r0, Z+
 e32:	0d 92       	st	X+, r0
 e34:	41 50       	subi	r20, 0x01	; 1
 e36:	50 40       	sbci	r21, 0x00	; 0
 e38:	d8 f7       	brcc	.-10     	; 0xe30 <memcpy_P+0x6>
 e3a:	08 95       	ret

00000e3c <_exit>:
 e3c:	f8 94       	cli

00000e3e <__stop_program>:
 e3e:	ff cf       	rjmp	.-2      	; 0xe3e <__stop_program>
